ARM GAS  C:\Users\Ludovic\AppData\Local\Temp\ccui0FIp.s 			page 1


   1              		.syntax unified
   2              		.cpu cortex-m3
   3              		.fpu softvfp
   4              		.eabi_attribute 20, 1
   5              		.eabi_attribute 21, 1
   6              		.eabi_attribute 23, 3
   7              		.eabi_attribute 24, 1
   8              		.eabi_attribute 25, 1
   9              		.eabi_attribute 26, 1
  10              		.eabi_attribute 30, 1
  11              		.eabi_attribute 34, 1
  12              		.eabi_attribute 18, 4
  13              		.thumb
  14              		.file	"main.c"
  15              		.text
  16              	.Ltext0:
  17              		.cfi_sections	.debug_frame
  18              		.global	__aeabi_d2iz
  19              		.section	.text.Interrupt_TX_Handler,"ax",%progbits
  20              		.align	2
  21              		.global	Interrupt_TX_Handler
  22              		.thumb
  23              		.thumb_func
  24              		.type	Interrupt_TX_Handler, %function
  25              	Interrupt_TX_Handler:
  26              	.LFB65:
  27              		.file 1 "main.c"
   1:main.c        **** /* ========================================
   2:main.c        ****  *
   3:main.c        ****  * B.E. Systèmes Embarqués Autonomes.
   4:main.c        ****  * INSA 5ESE 2016-2017.
   5:main.c        ****  *
   6:main.c        ****  * Author: Taha BENAICHA, Ludovic LESUR, Benjamin ROQUES and Anas RCHI.
   7:main.c        ****  * Since: 15/12/2016
   8:main.c        ****  *
   9:main.c        ****  * ========================================
  10:main.c        ****  */
  11:main.c        **** 
  12:main.c        **** 
  13:main.c        **** /* INCLUDES */
  14:main.c        **** 
  15:main.c        **** #include "project.h"
  16:main.c        **** #include <stdio.h>
  17:main.c        **** #include <math.h>
  18:main.c        **** 
  19:main.c        **** 
  20:main.c        **** /* MACRO DECLARATION */
  21:main.c        **** 
  22:main.c        **** #define SOUND_SPEED 0.34 // Sound speed (in mm/µs).
  23:main.c        **** #define SPACE_RX_TX 48 // Space between transmitter and receiver on PCB (in mm).
  24:main.c        **** #define DISTANCE_MIN 200 // Minimum distance before disabling front movement.
  25:main.c        **** 
  26:main.c        **** // According to experimental data, a corrective ax+b equation has been found with MATLAB.
  27:main.c        **** // Linear regression : correctDistance = a*measure+b.
  28:main.c        **** #define coef_a 1.1723
  29:main.c        **** #define coef_b -48.0862
  30:main.c        **** 
ARM GAS  C:\Users\Ludovic\AppData\Local\Temp\ccui0FIp.s 			page 2


  31:main.c        **** /* INSTRUCTIONS */
  32:main.c        **** 
  33:main.c        **** // Vitesse
  34:main.c        **** #define I_LOW_SPEED 0x6B // k
  35:main.c        **** #define I_MEDIUM_SPEED 0x6C // l
  36:main.c        **** #define I_HIGH_SPEED 0x6D // m
  37:main.c        **** 
  38:main.c        **** // Movement
  39:main.c        **** #define I_FORWARD 0x7A // z
  40:main.c        **** #define I_STOP 0x73 // s
  41:main.c        **** #define I_BACK 0x77 // w
  42:main.c        **** #define I_LEFT 0x71 // q
  43:main.c        **** #define I_RIGHT 0x64 // d
  44:main.c        **** #define I_FORWARD_RIGHT 0x65 // e
  45:main.c        **** #define I_FORWARD_LEFT 0x61 // a
  46:main.c        **** 
  47:main.c        **** 
  48:main.c        **** /* GLOBAL VARIABLES */
  49:main.c        **** 
  50:main.c        **** char response ; // Indicate if the feedback is detected by the comparator.
  51:main.c        **** double chrono ; // Time between the sending and the 
  52:main.c        **** double distance ; // Raw distance computed with d = v*t.
  53:main.c        **** double realDistance ; // Real distance taking to account 'SPACE_RX_TX'.
  54:main.c        **** double calibratedDistance ;
  55:main.c        **** char8 str[10] ; // Result displayed on the LCD screen.
  56:main.c        **** uint8 vitesse = 0 ;
  57:main.c        **** char instruction = 0 ;
  58:main.c        **** 
  59:main.c        **** 
  60:main.c        **** /* COMPUTES DISTANCE ACCORDING TO THE TELEMETER.
  61:main.c        ****  *
  62:main.c        ****  * @param :     None.
  63:main.c        ****  * @return :    None.
  64:main.c        ****  */
  65:main.c        **** void computeDistance() {
  66:main.c        ****     distance = SOUND_SPEED*chrono ;
  67:main.c        ****     realDistance = 0.5*sqrt(pow(distance,2)-pow(SPACE_RX_TX,2)) ;
  68:main.c        ****     calibratedDistance = coef_a*realDistance+coef_b ;
  69:main.c        **** }
  70:main.c        **** 
  71:main.c        **** 
  72:main.c        **** /* UPDATES DUTY CYCLE WITH THE SELECTED SPEED.
  73:main.c        ****  *
  74:main.c        ****  * @param :     None.
  75:main.c        ****  * @return :    None.
  76:main.c        ****  */
  77:main.c        **** void update_vitesse(void) {
  78:main.c        ****     PWM_Front_WriteCompare1(vitesse) ;
  79:main.c        ****     PWM_Front_WriteCompare2(vitesse) ;
  80:main.c        ****     PWM_Back_WriteCompare1(vitesse) ;
  81:main.c        ****     PWM_Back_WriteCompare2(vitesse) ;
  82:main.c        **** }
  83:main.c        **** 
  84:main.c        **** 
  85:main.c        **** /* HANDLER CALLED EVERY 10ms (TX INTERRUPT).
  86:main.c        ****  *
  87:main.c        ****  * @param :     None.
ARM GAS  C:\Users\Ludovic\AppData\Local\Temp\ccui0FIp.s 			page 3


  88:main.c        ****  * @return :    None.
  89:main.c        ****  */
  90:main.c        **** CY_ISR(Interrupt_TX_Handler) {
  28              		.loc 1 90 0
  29              		.cfi_startproc
  30              		@ args = 0, pretend = 0, frame = 0
  31              		@ frame_needed = 0, uses_anonymous_args = 0
  32 0000 10B5     		push	{r4, lr}
  33              		.cfi_def_cfa_offset 8
  34              		.cfi_offset 4, -8
  35              		.cfi_offset 14, -4
  91:main.c        ****     if (response == 0) {
  36              		.loc 1 91 0
  37 0002 134B     		ldr	r3, .L5
  38 0004 1B78     		ldrb	r3, [r3]	@ zero_extendqisi2
  39 0006 33B9     		cbnz	r3, .L2
  92:main.c        ****         // No feedback
  93:main.c        ****         sprintf(str, "D = Infinie") ;
  40              		.loc 1 93 0
  41 0008 124C     		ldr	r4, .L5+4
  42 000a 134B     		ldr	r3, .L5+8
  43 000c 07CB     		ldmia	r3!, {r0, r1, r2}
  44 000e 2060     		str	r0, [r4]	@ unaligned
  45 0010 6160     		str	r1, [r4, #4]	@ unaligned
  46 0012 A260     		str	r2, [r4, #8]	@ unaligned
  47 0014 09E0     		b	.L3
  48              	.L2:
  94:main.c        ****     }
  95:main.c        ****     else {
  96:main.c        ****         // Distance successfully computed
  97:main.c        ****         sprintf(str, "D = %d mm", (int)calibratedDistance) ;
  49              		.loc 1 97 0
  50 0016 114B     		ldr	r3, .L5+12
  51 0018 D3E90001 		ldrd	r0, [r3]
  52 001c FFF7FEFF 		bl	__aeabi_d2iz
  53              	.LVL0:
  54 0020 0246     		mov	r2, r0
  55 0022 0C48     		ldr	r0, .L5+4
  56 0024 0E49     		ldr	r1, .L5+16
  57 0026 FFF7FEFF 		bl	sprintf
  58              	.LVL1:
  59              	.L3:
  98:main.c        ****     }
  99:main.c        ****     // Displays result on LCD screen.
 100:main.c        ****     LCD_Position(1u, 0u) ;
  60              		.loc 1 100 0
  61 002a 0120     		movs	r0, #1
  62 002c 0021     		movs	r1, #0
  63 002e FFF7FEFF 		bl	LCD_Position
  64              	.LVL2:
 101:main.c        **** 	LCD_PrintString("              ") ;
  65              		.loc 1 101 0
  66 0032 0C48     		ldr	r0, .L5+20
  67 0034 FFF7FEFF 		bl	LCD_PrintString
  68              	.LVL3:
 102:main.c        ****     LCD_Position(1u, 0u) ;
  69              		.loc 1 102 0
ARM GAS  C:\Users\Ludovic\AppData\Local\Temp\ccui0FIp.s 			page 4


  70 0038 0120     		movs	r0, #1
  71 003a 0021     		movs	r1, #0
  72 003c FFF7FEFF 		bl	LCD_Position
  73              	.LVL4:
 103:main.c        ****     LCD_PrintString(str) ;
  74              		.loc 1 103 0
  75 0040 0448     		ldr	r0, .L5+4
  76 0042 FFF7FEFF 		bl	LCD_PrintString
  77              	.LVL5:
 104:main.c        ****     
 105:main.c        ****     // Start new measure.
 106:main.c        ****     response = 0 ;
  78              		.loc 1 106 0
  79 0046 0022     		movs	r2, #0
  80 0048 014B     		ldr	r3, .L5
  81 004a 1A70     		strb	r2, [r3]
  82 004c 10BD     		pop	{r4, pc}
  83              	.L6:
  84 004e 00BF     		.align	2
  85              	.L5:
  86 0050 00000000 		.word	response
  87 0054 00000000 		.word	str
  88 0058 00000000 		.word	.LC0
  89 005c 00000000 		.word	calibratedDistance
  90 0060 0C000000 		.word	.LC1
  91 0064 18000000 		.word	.LC2
  92              		.cfi_endproc
  93              	.LFE65:
  94              		.size	Interrupt_TX_Handler, .-Interrupt_TX_Handler
  95              		.section	.text.Interrupt_Xbee_Handler,"ax",%progbits
  96              		.align	2
  97              		.global	Interrupt_Xbee_Handler
  98              		.thumb
  99              		.thumb_func
 100              		.type	Interrupt_Xbee_Handler, %function
 101              	Interrupt_Xbee_Handler:
 102              	.LFB67:
 107:main.c        **** }
 108:main.c        **** 
 109:main.c        **** 
 110:main.c        **** /* HANDLER CALLED IF A FEEDBACK IS DETECTED BY THE COMPARATOR.
 111:main.c        ****  *
 112:main.c        ****  * @param :     None.
 113:main.c        ****  * @return :    None.
 114:main.c        ****  */
 115:main.c        **** CY_ISR(Interrupt_RX_Handler) {
 116:main.c        ****     // If the handler wasn't called yet... (= It's the first peak detected).
 117:main.c        ****     if (response == 0) {
 118:main.c        ****         response = 1 ;
 119:main.c        ****         // Update chrono.
 120:main.c        ****         chrono = ((double)Chronometer_ReadCounter())/(6.0) ; // (Clk = 6 MHz).
 121:main.c        ****         computeDistance() ;
 122:main.c        ****     }
 123:main.c        **** }
 124:main.c        **** 
 125:main.c        **** 
 126:main.c        **** /* HANDLER CALLED IF A CHAR IS RECEIVED BY THE XBEE MODULE
ARM GAS  C:\Users\Ludovic\AppData\Local\Temp\ccui0FIp.s 			page 5


 127:main.c        ****  *
 128:main.c        ****  * @param :     None.
 129:main.c        ****  * @return :    None.
 130:main.c        ****  */
 131:main.c        **** CY_ISR(Interrupt_Xbee_Handler) {
 103              		.loc 1 131 0
 104              		.cfi_startproc
 105              		@ args = 0, pretend = 0, frame = 0
 106              		@ frame_needed = 0, uses_anonymous_args = 0
 107 0000 10B5     		push	{r4, lr}
 108              		.cfi_def_cfa_offset 8
 109              		.cfi_offset 4, -8
 110              		.cfi_offset 14, -4
 132:main.c        ****     
 133:main.c        ****     instruction = XBee_GetChar() ;
 111              		.loc 1 133 0
 112 0002 FFF7FEFF 		bl	XBee_GetChar
 113              	.LVL6:
 114 0006 0246     		mov	r2, r0
 115 0008 0A4B     		ldr	r3, .L9
 116 000a 1870     		strb	r0, [r3]
 134:main.c        ****         
 135:main.c        ****     sprintf(str, "I = %c", instruction) ;
 117              		.loc 1 135 0
 118 000c 0A4C     		ldr	r4, .L9+4
 119 000e 2046     		mov	r0, r4
 120 0010 0A49     		ldr	r1, .L9+8
 121 0012 FFF7FEFF 		bl	sprintf
 122              	.LVL7:
 136:main.c        ****     LCD_Position(0u, 0u) ;
 123              		.loc 1 136 0
 124 0016 0020     		movs	r0, #0
 125 0018 0146     		mov	r1, r0
 126 001a FFF7FEFF 		bl	LCD_Position
 127              	.LVL8:
 137:main.c        **** 	LCD_PrintString("              ") ;
 128              		.loc 1 137 0
 129 001e 0848     		ldr	r0, .L9+12
 130 0020 FFF7FEFF 		bl	LCD_PrintString
 131              	.LVL9:
 138:main.c        ****     LCD_Position(0u, 0u) ;
 132              		.loc 1 138 0
 133 0024 0020     		movs	r0, #0
 134 0026 0146     		mov	r1, r0
 135 0028 FFF7FEFF 		bl	LCD_Position
 136              	.LVL10:
 139:main.c        ****     LCD_PrintString(str) ;
 137              		.loc 1 139 0
 138 002c 2046     		mov	r0, r4
 139 002e FFF7FEFF 		bl	LCD_PrintString
 140              	.LVL11:
 141 0032 10BD     		pop	{r4, pc}
 142              	.L10:
 143              		.align	2
 144              	.L9:
 145 0034 00000000 		.word	.LANCHOR0
 146 0038 00000000 		.word	str
ARM GAS  C:\Users\Ludovic\AppData\Local\Temp\ccui0FIp.s 			page 6


 147 003c 28000000 		.word	.LC3
 148 0040 18000000 		.word	.LC2
 149              		.cfi_endproc
 150              	.LFE67:
 151              		.size	Interrupt_Xbee_Handler, .-Interrupt_Xbee_Handler
 152              		.global	__aeabi_dmul
 153              		.global	__aeabi_dsub
 154              		.section	.text.computeDistance,"ax",%progbits
 155              		.align	2
 156              		.global	computeDistance
 157              		.thumb
 158              		.thumb_func
 159              		.type	computeDistance, %function
 160              	computeDistance:
 161              	.LFB63:
  65:main.c        ****     distance = SOUND_SPEED*chrono ;
 162              		.loc 1 65 0
 163              		.cfi_startproc
 164              		@ args = 0, pretend = 0, frame = 0
 165              		@ frame_needed = 0, uses_anonymous_args = 0
 166 0000 38B5     		push	{r3, r4, r5, lr}
 167              		.cfi_def_cfa_offset 16
 168              		.cfi_offset 3, -16
 169              		.cfi_offset 4, -12
 170              		.cfi_offset 5, -8
 171              		.cfi_offset 14, -4
  66:main.c        ****     realDistance = 0.5*sqrt(pow(distance,2)-pow(SPACE_RX_TX,2)) ;
 172              		.loc 1 66 0
 173 0002 1D4B     		ldr	r3, .L13+24
 174 0004 D3E90001 		ldrd	r0, [r3]
 175 0008 15A3     		adr	r3, .L13
 176 000a D3E90023 		ldrd	r2, [r3]
 177 000e FFF7FEFF 		bl	__aeabi_dmul
 178              	.LVL12:
 179 0012 1A4B     		ldr	r3, .L13+28
 180 0014 C3E90001 		strd	r0, [r3]
  67:main.c        ****     calibratedDistance = coef_a*realDistance+coef_b ;
 181              		.loc 1 67 0
 182 0018 0022     		movs	r2, #0
 183 001a 4FF08043 		mov	r3, #1073741824
 184 001e FFF7FEFF 		bl	pow
 185              	.LVL13:
 186 0022 0446     		mov	r4, r0
 187 0024 0D46     		mov	r5, r1
 188 0026 2046     		mov	r0, r4
 189 0028 2946     		mov	r1, r5
 190 002a 0022     		movs	r2, #0
 191 002c 144B     		ldr	r3, .L13+32
 192 002e FFF7FEFF 		bl	__aeabi_dsub
 193              	.LVL14:
 194 0032 FFF7FEFF 		bl	sqrt
 195              	.LVL15:
 196 0036 0022     		movs	r2, #0
 197 0038 124B     		ldr	r3, .L13+36
 198 003a FFF7FEFF 		bl	__aeabi_dmul
 199              	.LVL16:
 200 003e 124B     		ldr	r3, .L13+40
ARM GAS  C:\Users\Ludovic\AppData\Local\Temp\ccui0FIp.s 			page 7


 201 0040 C3E90001 		strd	r0, [r3]
  68:main.c        **** }
 202              		.loc 1 68 0
 203 0044 08A3     		adr	r3, .L13+8
 204 0046 D3E90023 		ldrd	r2, [r3]
 205 004a FFF7FEFF 		bl	__aeabi_dmul
 206              	.LVL17:
 207 004e 08A3     		adr	r3, .L13+16
 208 0050 D3E90023 		ldrd	r2, [r3]
 209 0054 FFF7FEFF 		bl	__aeabi_dsub
 210              	.LVL18:
 211 0058 0C4B     		ldr	r3, .L13+44
 212 005a C3E90001 		strd	r0, [r3]
 213 005e 38BD     		pop	{r3, r4, r5, pc}
 214              	.L14:
 215              		.align	3
 216              	.L13:
 217 0060 C3F5285C 		.word	1546188227
 218 0064 8FC2D53F 		.word	1070973583
 219 0068 E09C11A5 		.word	-1525572384
 220 006c BDC1F23F 		.word	1072873917
 221 0070 2575029A 		.word	-1711114971
 222 0074 080B4840 		.word	1078463240
 223 0078 00000000 		.word	chrono
 224 007c 00000000 		.word	distance
 225 0080 0000A240 		.word	1084358656
 226 0084 0000E03F 		.word	1071644672
 227 0088 00000000 		.word	realDistance
 228 008c 00000000 		.word	calibratedDistance
 229              		.cfi_endproc
 230              	.LFE63:
 231              		.size	computeDistance, .-computeDistance
 232              		.global	__aeabi_ui2d
 233              		.global	__aeabi_ddiv
 234              		.section	.text.Interrupt_RX_Handler,"ax",%progbits
 235              		.align	2
 236              		.global	Interrupt_RX_Handler
 237              		.thumb
 238              		.thumb_func
 239              		.type	Interrupt_RX_Handler, %function
 240              	Interrupt_RX_Handler:
 241              	.LFB66:
 115:main.c        ****     // If the handler wasn't called yet... (= It's the first peak detected).
 242              		.loc 1 115 0
 243              		.cfi_startproc
 244              		@ args = 0, pretend = 0, frame = 0
 245              		@ frame_needed = 0, uses_anonymous_args = 0
 246 0000 08B5     		push	{r3, lr}
 247              		.cfi_def_cfa_offset 8
 248              		.cfi_offset 3, -8
 249              		.cfi_offset 14, -4
 117:main.c        ****         response = 1 ;
 250              		.loc 1 117 0
 251 0002 0A4B     		ldr	r3, .L18
 252 0004 1B78     		ldrb	r3, [r3]	@ zero_extendqisi2
 253 0006 7BB9     		cbnz	r3, .L15
 118:main.c        ****         // Update chrono.
ARM GAS  C:\Users\Ludovic\AppData\Local\Temp\ccui0FIp.s 			page 8


 254              		.loc 1 118 0
 255 0008 0122     		movs	r2, #1
 256 000a 084B     		ldr	r3, .L18
 257 000c 1A70     		strb	r2, [r3]
 120:main.c        ****         computeDistance() ;
 258              		.loc 1 120 0
 259 000e FFF7FEFF 		bl	Chronometer_ReadCounter
 260              	.LVL19:
 261 0012 FFF7FEFF 		bl	__aeabi_ui2d
 262              	.LVL20:
 263 0016 0022     		movs	r2, #0
 264 0018 054B     		ldr	r3, .L18+4
 265 001a FFF7FEFF 		bl	__aeabi_ddiv
 266              	.LVL21:
 267 001e 054B     		ldr	r3, .L18+8
 268 0020 C3E90001 		strd	r0, [r3]
 121:main.c        ****     }
 269              		.loc 1 121 0
 270 0024 FFF7FEFF 		bl	computeDistance
 271              	.LVL22:
 272              	.L15:
 273 0028 08BD     		pop	{r3, pc}
 274              	.L19:
 275 002a 00BF     		.align	2
 276              	.L18:
 277 002c 00000000 		.word	response
 278 0030 00001840 		.word	1075314688
 279 0034 00000000 		.word	chrono
 280              		.cfi_endproc
 281              	.LFE66:
 282              		.size	Interrupt_RX_Handler, .-Interrupt_RX_Handler
 283              		.section	.text.update_vitesse,"ax",%progbits
 284              		.align	2
 285              		.global	update_vitesse
 286              		.thumb
 287              		.thumb_func
 288              		.type	update_vitesse, %function
 289              	update_vitesse:
 290              	.LFB64:
  77:main.c        ****     PWM_Front_WriteCompare1(vitesse) ;
 291              		.loc 1 77 0
 292              		.cfi_startproc
 293              		@ args = 0, pretend = 0, frame = 0
 294              		@ frame_needed = 0, uses_anonymous_args = 0
 295 0000 10B5     		push	{r4, lr}
 296              		.cfi_def_cfa_offset 8
 297              		.cfi_offset 4, -8
 298              		.cfi_offset 14, -4
  78:main.c        ****     PWM_Front_WriteCompare2(vitesse) ;
 299              		.loc 1 78 0
 300 0002 074C     		ldr	r4, .L22
 301 0004 6078     		ldrb	r0, [r4, #1]	@ zero_extendqisi2
 302 0006 FFF7FEFF 		bl	PWM_Front_WriteCompare1
 303              	.LVL23:
  79:main.c        ****     PWM_Back_WriteCompare1(vitesse) ;
 304              		.loc 1 79 0
 305 000a 6078     		ldrb	r0, [r4, #1]	@ zero_extendqisi2
ARM GAS  C:\Users\Ludovic\AppData\Local\Temp\ccui0FIp.s 			page 9


 306 000c FFF7FEFF 		bl	PWM_Front_WriteCompare2
 307              	.LVL24:
  80:main.c        ****     PWM_Back_WriteCompare2(vitesse) ;
 308              		.loc 1 80 0
 309 0010 6078     		ldrb	r0, [r4, #1]	@ zero_extendqisi2
 310 0012 FFF7FEFF 		bl	PWM_Back_WriteCompare1
 311              	.LVL25:
  81:main.c        **** }
 312              		.loc 1 81 0
 313 0016 6078     		ldrb	r0, [r4, #1]	@ zero_extendqisi2
 314 0018 FFF7FEFF 		bl	PWM_Back_WriteCompare2
 315              	.LVL26:
 316 001c 10BD     		pop	{r4, pc}
 317              	.L23:
 318 001e 00BF     		.align	2
 319              	.L22:
 320 0020 00000000 		.word	.LANCHOR0
 321              		.cfi_endproc
 322              	.LFE64:
 323              		.size	update_vitesse, .-update_vitesse
 324              		.section	.text.stop,"ax",%progbits
 325              		.align	2
 326              		.global	stop
 327              		.thumb
 328              		.thumb_func
 329              		.type	stop, %function
 330              	stop:
 331              	.LFB68:
 140:main.c        **** }
 141:main.c        **** 
 142:main.c        **** 
 143:main.c        **** /* STOP.
 144:main.c        ****  *
 145:main.c        ****  * @param :     None.
 146:main.c        ****  * @return :    None.
 147:main.c        ****  */
 148:main.c        **** void stop() {
 332              		.loc 1 148 0
 333              		.cfi_startproc
 334              		@ args = 0, pretend = 0, frame = 0
 335              		@ frame_needed = 0, uses_anonymous_args = 0
 336 0000 08B5     		push	{r3, lr}
 337              		.cfi_def_cfa_offset 8
 338              		.cfi_offset 3, -8
 339              		.cfi_offset 14, -4
 149:main.c        ****     Rotation_Register_Write(0x00) ; // '00000000'
 340              		.loc 1 149 0
 341 0002 0020     		movs	r0, #0
 342 0004 FFF7FEFF 		bl	Rotation_Register_Write
 343              	.LVL27:
 344 0008 08BD     		pop	{r3, pc}
 345              		.cfi_endproc
 346              	.LFE68:
 347              		.size	stop, .-stop
 348              		.global	__aeabi_dcmpge
 349 000a 00BF     		.section	.text.forward,"ax",%progbits
 350              		.align	2
ARM GAS  C:\Users\Ludovic\AppData\Local\Temp\ccui0FIp.s 			page 10


 351              		.global	forward
 352              		.thumb
 353              		.thumb_func
 354              		.type	forward, %function
 355              	forward:
 356              	.LFB69:
 150:main.c        **** }
 151:main.c        **** 
 152:main.c        **** 
 153:main.c        **** /* GO FORWARD.
 154:main.c        ****  *
 155:main.c        ****  * @param :     None.
 156:main.c        ****  * @return :    None.
 157:main.c        ****  */
 158:main.c        **** void forward() {
 357              		.loc 1 158 0
 358              		.cfi_startproc
 359              		@ args = 0, pretend = 0, frame = 0
 360              		@ frame_needed = 0, uses_anonymous_args = 0
 361 0000 08B5     		push	{r3, lr}
 362              		.cfi_def_cfa_offset 8
 363              		.cfi_offset 3, -8
 364              		.cfi_offset 14, -4
 159:main.c        ****     if ((response == 0) || (calibratedDistance >= DISTANCE_MIN)) {
 365              		.loc 1 159 0
 366 0002 094B     		ldr	r3, .L33
 367 0004 1B78     		ldrb	r3, [r3]	@ zero_extendqisi2
 368 0006 3BB1     		cbz	r3, .L27
 369              		.loc 1 159 0 is_stmt 0 discriminator 1
 370 0008 084B     		ldr	r3, .L33+4
 371 000a D3E90001 		ldrd	r0, [r3]
 372 000e 0022     		movs	r2, #0
 373 0010 074B     		ldr	r3, .L33+8
 374 0012 FFF7FEFF 		bl	__aeabi_dcmpge
 375              	.LVL28:
 376 0016 18B1     		cbz	r0, .L31
 377              	.L27:
 160:main.c        ****         Rotation_Register_Write(0xAA) ; // '10100110'
 378              		.loc 1 160 0 is_stmt 1
 379 0018 AA20     		movs	r0, #170
 380 001a FFF7FEFF 		bl	Rotation_Register_Write
 381              	.LVL29:
 382 001e 08BD     		pop	{r3, pc}
 383              	.L31:
 161:main.c        ****     }
 162:main.c        ****     else {
 163:main.c        ****         stop() ;
 384              		.loc 1 163 0
 385 0020 FFF7FEFF 		bl	stop
 386              	.LVL30:
 387 0024 08BD     		pop	{r3, pc}
 388              	.L34:
 389 0026 00BF     		.align	2
 390              	.L33:
 391 0028 00000000 		.word	response
 392 002c 00000000 		.word	calibratedDistance
 393 0030 00006940 		.word	1080623104
ARM GAS  C:\Users\Ludovic\AppData\Local\Temp\ccui0FIp.s 			page 11


 394              		.cfi_endproc
 395              	.LFE69:
 396              		.size	forward, .-forward
 397              		.section	.text.backward,"ax",%progbits
 398              		.align	2
 399              		.global	backward
 400              		.thumb
 401              		.thumb_func
 402              		.type	backward, %function
 403              	backward:
 404              	.LFB70:
 164:main.c        ****     }
 165:main.c        **** }
 166:main.c        **** 
 167:main.c        **** 
 168:main.c        **** /* GO BACKWARD.
 169:main.c        ****  *
 170:main.c        ****  * @param :     None.
 171:main.c        ****  * @return :    None.
 172:main.c        ****  */
 173:main.c        **** void backward() {
 405              		.loc 1 173 0
 406              		.cfi_startproc
 407              		@ args = 0, pretend = 0, frame = 0
 408              		@ frame_needed = 0, uses_anonymous_args = 0
 409 0000 08B5     		push	{r3, lr}
 410              		.cfi_def_cfa_offset 8
 411              		.cfi_offset 3, -8
 412              		.cfi_offset 14, -4
 174:main.c        ****     Rotation_Register_Write(0x55) ; // '01011001'
 413              		.loc 1 174 0
 414 0002 5520     		movs	r0, #85
 415 0004 FFF7FEFF 		bl	Rotation_Register_Write
 416              	.LVL31:
 417 0008 08BD     		pop	{r3, pc}
 418              		.cfi_endproc
 419              	.LFE70:
 420              		.size	backward, .-backward
 421 000a 00BF     		.section	.text.main,"ax",%progbits
 422              		.align	2
 423              		.global	main
 424              		.thumb
 425              		.thumb_func
 426              		.type	main, %function
 427              	main:
 428              	.LFB71:
 175:main.c        **** }
 176:main.c        **** 
 177:main.c        **** /* MAIN FUNCTION
 178:main.c        ****  *
 179:main.c        ****  * @param :     None.
 180:main.c        ****  * @return :    None.
 181:main.c        ****  */
 182:main.c        **** int main(void) {
 429              		.loc 1 182 0
 430              		.cfi_startproc
 431              		@ args = 0, pretend = 0, frame = 0
ARM GAS  C:\Users\Ludovic\AppData\Local\Temp\ccui0FIp.s 			page 12


 432              		@ frame_needed = 0, uses_anonymous_args = 0
 433 0000 08B5     		push	{r3, lr}
 434              		.cfi_def_cfa_offset 8
 435              		.cfi_offset 3, -8
 436              		.cfi_offset 14, -4
 183:main.c        **** 
 184:main.c        ****     // Initialisations
 185:main.c        ****     Clk_Start() ;
 437              		.loc 1 185 0
 438 0002 FFF7FEFF 		bl	Clk_Start
 439              	.LVL32:
 186:main.c        ****     Clock_1_Start() ;
 440              		.loc 1 186 0
 441 0006 FFF7FEFF 		bl	Clock_1_Start
 442              	.LVL33:
 187:main.c        ****     Clock_2_Start() ;
 443              		.loc 1 187 0
 444 000a FFF7FEFF 		bl	Clock_2_Start
 445              	.LVL34:
 188:main.c        ****     
 189:main.c        ****     LCD_Start() ;
 446              		.loc 1 189 0
 447 000e FFF7FEFF 		bl	LCD_Start
 448              	.LVL35:
 190:main.c        ****     LCD_ClearDisplay() ;
 449              		.loc 1 190 0
 450 0012 0120     		movs	r0, #1
 451 0014 FFF7FEFF 		bl	LCD_WriteControl
 452              	.LVL36:
 191:main.c        ****     
 192:main.c        ****     Chronometer_Start() ;
 453              		.loc 1 192 0
 454 0018 FFF7FEFF 		bl	Chronometer_Start
 455              	.LVL37:
 193:main.c        ****     Comparator_Start() ;
 456              		.loc 1 193 0
 457 001c FFF7FEFF 		bl	Comparator_Start
 458              	.LVL38:
 194:main.c        ****     Counter_Pulses_Start() ;
 459              		.loc 1 194 0
 460 0020 FFF7FEFF 		bl	Counter_Pulses_Start
 461              	.LVL39:
 195:main.c        ****     Out_MAX232_Start() ;
 462              		.loc 1 195 0
 463 0024 FFF7FEFF 		bl	Out_MAX232_Start
 464              	.LVL40:
 196:main.c        ****     Pre_Ampli_Start() ;
 465              		.loc 1 196 0
 466 0028 FFF7FEFF 		bl	Pre_Ampli_Start
 467              	.LVL41:
 197:main.c        ****     Threshold_Start() ;
 468              		.loc 1 197 0
 469 002c FFF7FEFF 		bl	Threshold_Start
 470              	.LVL42:
 198:main.c        ****     Timer_TX_Start() ;
 471              		.loc 1 198 0
 472 0030 FFF7FEFF 		bl	Timer_TX_Start
ARM GAS  C:\Users\Ludovic\AppData\Local\Temp\ccui0FIp.s 			page 13


 473              	.LVL43:
 199:main.c        ****     
 200:main.c        ****      // Enables global interrupts.
 201:main.c        ****     CyGlobalIntEnable ;
 474              		.loc 1 201 0
 475              	@ 201 "main.c" 1
 476 0034 62B6     		CPSIE   i
 477              	@ 0 "" 2
 202:main.c        ****     
 203:main.c        ****     // Links interrupts and corresponding handlers.
 204:main.c        ****     Interrupt_TX_StartEx(Interrupt_TX_Handler) ;
 478              		.loc 1 204 0
 479              		.thumb
 480 0036 4148     		ldr	r0, .L51
 481 0038 FFF7FEFF 		bl	Interrupt_TX_StartEx
 482              	.LVL44:
 205:main.c        ****     Interrupt_RX_StartEx(Interrupt_RX_Handler) ;
 483              		.loc 1 205 0
 484 003c 4048     		ldr	r0, .L51+4
 485 003e FFF7FEFF 		bl	Interrupt_RX_StartEx
 486              	.LVL45:
 206:main.c        ****     Interrupt_Xbee_StartEx(Interrupt_Xbee_Handler) ;
 487              		.loc 1 206 0
 488 0042 4048     		ldr	r0, .L51+8
 489 0044 FFF7FEFF 		bl	Interrupt_Xbee_StartEx
 490              	.LVL46:
 207:main.c        ****     
 208:main.c        ****     XBee_Init() ;
 491              		.loc 1 208 0
 492 0048 FFF7FEFF 		bl	XBee_Init
 493              	.LVL47:
 209:main.c        ****     XBee_Start() ;
 494              		.loc 1 209 0
 495 004c FFF7FEFF 		bl	XBee_Start
 496              	.LVL48:
 210:main.c        ****     PWM_Front_Start() ;
 497              		.loc 1 210 0
 498 0050 FFF7FEFF 		bl	PWM_Front_Start
 499              	.LVL49:
 211:main.c        ****     PWM_Back_Start() ;
 500              		.loc 1 211 0
 501 0054 FFF7FEFF 		bl	PWM_Back_Start
 502              	.LVL50:
 212:main.c        ****     
 213:main.c        ****     uint8 c = 0 ; // Variable à 3 états (obliger passage par tout droit avanat de tourner
 214:main.c        ****     stop() ; // Arret au debut
 503              		.loc 1 214 0
 504 0058 FFF7FEFF 		bl	stop
 505              	.LVL51:
 213:main.c        ****     stop() ; // Arret au debut
 506              		.loc 1 213 0
 507 005c 0022     		movs	r2, #0
 508              	.LVL52:
 509              	.L38:
 215:main.c        ****     
 216:main.c        ****     // Application code.
 217:main.c        ****     while (1) {
ARM GAS  C:\Users\Ludovic\AppData\Local\Temp\ccui0FIp.s 			page 14


 218:main.c        ****         
 219:main.c        ****         // Choix vitesse
 220:main.c        ****         switch (instruction) {
 510              		.loc 1 220 0
 511 005e 3A4B     		ldr	r3, .L51+12
 512 0060 1B78     		ldrb	r3, [r3]	@ zero_extendqisi2
 513 0062 6C2B     		cmp	r3, #108
 514 0064 07D0     		beq	.L40
 515 0066 6D2B     		cmp	r3, #109
 516 0068 09D0     		beq	.L41
 517 006a 6B2B     		cmp	r3, #107
 518 006c 0AD1     		bne	.L39
 221:main.c        ****         case (I_LOW_SPEED) :
 222:main.c        ****             vitesse = 127 ;
 519              		.loc 1 222 0
 520 006e 7F20     		movs	r0, #127
 521 0070 3549     		ldr	r1, .L51+12
 522 0072 4870     		strb	r0, [r1, #1]
 223:main.c        ****             break ;
 523              		.loc 1 223 0
 524 0074 06E0     		b	.L39
 525              	.L40:
 224:main.c        ****         case (I_MEDIUM_SPEED) : 
 225:main.c        ****             vitesse = 191 ;  
 526              		.loc 1 225 0
 527 0076 BF20     		movs	r0, #191
 528 0078 3349     		ldr	r1, .L51+12
 529 007a 4870     		strb	r0, [r1, #1]
 226:main.c        ****             break ;
 530              		.loc 1 226 0
 531 007c 02E0     		b	.L39
 532              	.L41:
 227:main.c        ****         case (I_HIGH_SPEED) : 
 228:main.c        ****             vitesse = 220u ;
 533              		.loc 1 228 0
 534 007e DC20     		movs	r0, #220
 535 0080 3149     		ldr	r1, .L51+12
 536 0082 4870     		strb	r0, [r1, #1]
 537              	.L39:
 229:main.c        ****             break ; 
 230:main.c        ****         }
 231:main.c        ****         
 232:main.c        ****         // Mouvements
 233:main.c        ****         
 234:main.c        ****         // Avancer vers l'avant
 235:main.c        ****         if (instruction == I_FORWARD) {  
 538              		.loc 1 235 0
 539 0084 7A2B     		cmp	r3, #122
 540 0086 04D1     		bne	.L43
 236:main.c        ****             forward() ;
 541              		.loc 1 236 0
 542 0088 FFF7FEFF 		bl	forward
 543              	.LVL53:
 237:main.c        ****             update_vitesse() ;
 544              		.loc 1 237 0
 545 008c FFF7FEFF 		bl	update_vitesse
 546              	.LVL54:
ARM GAS  C:\Users\Ludovic\AppData\Local\Temp\ccui0FIp.s 			page 15


 238:main.c        ****             c = 0 ;
 547              		.loc 1 238 0
 548 0090 0022     		movs	r2, #0
 549              	.LVL55:
 550              	.L43:
 239:main.c        ****         }
 240:main.c        ****         // Reculer
 241:main.c        ****         if (instruction == I_BACK) {  
 551              		.loc 1 241 0
 552 0092 2D4B     		ldr	r3, .L51+12
 553 0094 1B78     		ldrb	r3, [r3]	@ zero_extendqisi2
 554 0096 772B     		cmp	r3, #119
 555 0098 04D1     		bne	.L44
 242:main.c        ****             backward() ;
 556              		.loc 1 242 0
 557 009a FFF7FEFF 		bl	backward
 558              	.LVL56:
 243:main.c        ****             update_vitesse() ;
 559              		.loc 1 243 0
 560 009e FFF7FEFF 		bl	update_vitesse
 561              	.LVL57:
 244:main.c        ****             c = 0 ;
 562              		.loc 1 244 0
 563 00a2 0022     		movs	r2, #0
 564              	.LVL58:
 565              	.L44:
 245:main.c        ****         }
 246:main.c        ****         // Tourner à droite
 247:main.c        ****         if (instruction == I_RIGHT) {
 566              		.loc 1 247 0
 567 00a4 284B     		ldr	r3, .L51+12
 568 00a6 1B78     		ldrb	r3, [r3]	@ zero_extendqisi2
 569 00a8 642B     		cmp	r3, #100
 570 00aa 05D1     		bne	.L45
 248:main.c        ****             Rotation_Register_Write(0xA5) ; // '10100101'
 571              		.loc 1 248 0
 572 00ac A520     		movs	r0, #165
 573 00ae FFF7FEFF 		bl	Rotation_Register_Write
 574              	.LVL59:
 249:main.c        ****             update_vitesse() ;
 575              		.loc 1 249 0
 576 00b2 FFF7FEFF 		bl	update_vitesse
 577              	.LVL60:
 250:main.c        ****             c = 0 ;
 578              		.loc 1 250 0
 579 00b6 0022     		movs	r2, #0
 580              	.LVL61:
 581              	.L45:
 251:main.c        ****         }
 252:main.c        ****         // Tourner à gauche
 253:main.c        ****         if (instruction == I_LEFT) { 
 582              		.loc 1 253 0
 583 00b8 234B     		ldr	r3, .L51+12
 584 00ba 1B78     		ldrb	r3, [r3]	@ zero_extendqisi2
 585 00bc 712B     		cmp	r3, #113
 586 00be 05D1     		bne	.L46
 254:main.c        ****             Rotation_Register_Write(0x5A) ; // '01011010'
ARM GAS  C:\Users\Ludovic\AppData\Local\Temp\ccui0FIp.s 			page 16


 587              		.loc 1 254 0
 588 00c0 5A20     		movs	r0, #90
 589 00c2 FFF7FEFF 		bl	Rotation_Register_Write
 590              	.LVL62:
 255:main.c        ****             update_vitesse() ;
 591              		.loc 1 255 0
 592 00c6 FFF7FEFF 		bl	update_vitesse
 593              	.LVL63:
 256:main.c        ****             c = 0 ;
 594              		.loc 1 256 0
 595 00ca 0022     		movs	r2, #0
 596              	.LVL64:
 597              	.L46:
 257:main.c        ****         }
 258:main.c        ****         // Arret
 259:main.c        ****         if (instruction == I_STOP) { 
 598              		.loc 1 259 0
 599 00cc 1E4B     		ldr	r3, .L51+12
 600 00ce 1B78     		ldrb	r3, [r3]	@ zero_extendqisi2
 601 00d0 732B     		cmp	r3, #115
 602 00d2 04D1     		bne	.L47
 260:main.c        ****             stop() ;
 603              		.loc 1 260 0
 604 00d4 FFF7FEFF 		bl	stop
 605              	.LVL65:
 261:main.c        ****             update_vitesse() ;
 606              		.loc 1 261 0
 607 00d8 FFF7FEFF 		bl	update_vitesse
 608              	.LVL66:
 262:main.c        ****             c = 0 ;
 609              		.loc 1 262 0
 610 00dc 0022     		movs	r2, #0
 611              	.LVL67:
 612              	.L47:
 263:main.c        ****         }
 264:main.c        ****         // Tourner à gauche en avançant  
 265:main.c        ****         if ((instruction == I_FORWARD_LEFT) && (c != 2) && (c != 1)) {                  
 613              		.loc 1 265 0
 614 00de 1A4B     		ldr	r3, .L51+12
 615 00e0 1B78     		ldrb	r3, [r3]	@ zero_extendqisi2
 616 00e2 612B     		cmp	r3, #97
 617 00e4 12D1     		bne	.L48
 618              		.loc 1 265 0 is_stmt 0 discriminator 1
 619 00e6 022A     		cmp	r2, #2
 620 00e8 10D0     		beq	.L48
 621              		.loc 1 265 0 discriminator 2
 622 00ea 012A     		cmp	r2, #1
 623 00ec 0ED0     		beq	.L48
 266:main.c        ****             PWM_Front_WriteCompare2(PWM_Front_ReadCompare1()+30) ;
 624              		.loc 1 266 0 is_stmt 1
 625 00ee FFF7FEFF 		bl	PWM_Front_ReadCompare1
 626              	.LVL68:
 627 00f2 1E30     		adds	r0, r0, #30
 628 00f4 C0B2     		uxtb	r0, r0
 629 00f6 FFF7FEFF 		bl	PWM_Front_WriteCompare2
 630              	.LVL69:
 267:main.c        ****             PWM_Back_WriteCompare2(PWM_Back_ReadCompare1()+30) ;
ARM GAS  C:\Users\Ludovic\AppData\Local\Temp\ccui0FIp.s 			page 17


 631              		.loc 1 267 0
 632 00fa FFF7FEFF 		bl	PWM_Back_ReadCompare1
 633              	.LVL70:
 634 00fe 1E30     		adds	r0, r0, #30
 635 0100 C0B2     		uxtb	r0, r0
 636 0102 FFF7FEFF 		bl	PWM_Back_WriteCompare2
 637              	.LVL71:
 268:main.c        ****             forward() ;
 638              		.loc 1 268 0
 639 0106 FFF7FEFF 		bl	forward
 640              	.LVL72:
 269:main.c        ****             c = 1 ;
 641              		.loc 1 269 0
 642 010a 0122     		movs	r2, #1
 643              	.LVL73:
 644              	.L48:
 270:main.c        ****         }
 271:main.c        ****         // Tourner à droite en avançant
 272:main.c        ****         if ((instruction == I_FORWARD_RIGHT) && (c != 1) &&( c != 2)) { 
 645              		.loc 1 272 0
 646 010c 0E4B     		ldr	r3, .L51+12
 647 010e 1B78     		ldrb	r3, [r3]	@ zero_extendqisi2
 648 0110 652B     		cmp	r3, #101
 649 0112 A4D1     		bne	.L38
 650              		.loc 1 272 0 is_stmt 0 discriminator 1
 651 0114 012A     		cmp	r2, #1
 652 0116 A2D0     		beq	.L38
 653              		.loc 1 272 0 discriminator 2
 654 0118 022A     		cmp	r2, #2
 655 011a A0D0     		beq	.L38
 273:main.c        ****             PWM_Front_WriteCompare1(PWM_Front_ReadCompare1()+30) ;
 656              		.loc 1 273 0 is_stmt 1
 657 011c FFF7FEFF 		bl	PWM_Front_ReadCompare1
 658              	.LVL74:
 659 0120 1E30     		adds	r0, r0, #30
 660 0122 C0B2     		uxtb	r0, r0
 661 0124 FFF7FEFF 		bl	PWM_Front_WriteCompare1
 662              	.LVL75:
 274:main.c        ****             PWM_Back_WriteCompare1(PWM_Back_ReadCompare1()+30) ;
 663              		.loc 1 274 0
 664 0128 FFF7FEFF 		bl	PWM_Back_ReadCompare1
 665              	.LVL76:
 666 012c 1E30     		adds	r0, r0, #30
 667 012e C0B2     		uxtb	r0, r0
 668 0130 FFF7FEFF 		bl	PWM_Back_WriteCompare1
 669              	.LVL77:
 275:main.c        ****             forward() ;
 670              		.loc 1 275 0
 671 0134 FFF7FEFF 		bl	forward
 672              	.LVL78:
 276:main.c        ****             c = 2 ;
 673              		.loc 1 276 0
 674 0138 0222     		movs	r2, #2
 675 013a 90E7     		b	.L38
 676              	.L52:
 677              		.align	2
 678              	.L51:
ARM GAS  C:\Users\Ludovic\AppData\Local\Temp\ccui0FIp.s 			page 18


 679 013c 00000000 		.word	Interrupt_TX_Handler
 680 0140 00000000 		.word	Interrupt_RX_Handler
 681 0144 00000000 		.word	Interrupt_Xbee_Handler
 682 0148 00000000 		.word	.LANCHOR0
 683              		.cfi_endproc
 684              	.LFE71:
 685              		.size	main, .-main
 686              		.global	instruction
 687              		.global	vitesse
 688              		.comm	str,10,4
 689              		.comm	calibratedDistance,8,8
 690              		.comm	realDistance,8,8
 691              		.comm	distance,8,8
 692              		.comm	chrono,8,8
 693              		.comm	response,1,1
 694              		.section	.rodata.str1.4,"aMS",%progbits,1
 695              		.align	2
 696              	.LC0:
 697 0000 44203D20 		.ascii	"D = Infinie\000"
 697      496E6669 
 697      6E696500 
 698              	.LC1:
 699 000c 44203D20 		.ascii	"D = %d mm\000"
 699      2564206D 
 699      6D00
 700 0016 0000     		.space	2
 701              	.LC2:
 702 0018 20202020 		.ascii	"              \000"
 702      20202020 
 702      20202020 
 702      202000
 703 0027 00       		.space	1
 704              	.LC3:
 705 0028 49203D20 		.ascii	"I = %c\000"
 705      256300
 706 002f 00       		.bss
 707              		.set	.LANCHOR0,. + 0
 708              		.type	instruction, %object
 709              		.size	instruction, 1
 710              	instruction:
 711 0000 00       		.space	1
 712              		.type	vitesse, %object
 713              		.size	vitesse, 1
 714              	vitesse:
 715 0001 00       		.space	1
 716              		.text
 717              	.Letext0:
 718              		.file 2 "c:\\program files (x86)\\cypress\\psoc creator\\4.0\\psoc creator\\import\\gnu\\arm\\4.9.
 719              		.file 3 "c:\\program files (x86)\\cypress\\psoc creator\\4.0\\psoc creator\\import\\gnu\\arm\\4.9.
 720              		.file 4 "Generated_Source\\PSoC5/cytypes.h"
 721              		.file 5 "Generated_Source\\PSoC5/core_cm3.h"
 722              		.file 6 "Generated_Source\\PSoC5/LCD.h"
 723              		.file 7 "c:\\program files (x86)\\cypress\\psoc creator\\4.0\\psoc creator\\import\\gnu\\arm\\4.9.
 724              		.file 8 "c:\\program files (x86)\\cypress\\psoc creator\\4.0\\psoc creator\\import\\gnu\\arm\\4.9.
 725              		.file 9 "Generated_Source\\PSoC5/XBee.h"
 726              		.file 10 "Generated_Source\\PSoC5/Chronometer.h"
 727              		.file 11 "Generated_Source\\PSoC5/PWM_Front.h"
ARM GAS  C:\Users\Ludovic\AppData\Local\Temp\ccui0FIp.s 			page 19


 728              		.file 12 "Generated_Source\\PSoC5/PWM_Back.h"
 729              		.file 13 "Generated_Source\\PSoC5/Rotation_Register.h"
 730              		.file 14 "Generated_Source\\PSoC5/Clk.h"
 731              		.file 15 "Generated_Source\\PSoC5/Clock_1.h"
 732              		.file 16 "Generated_Source\\PSoC5/Clock_2.h"
 733              		.file 17 "Generated_Source\\PSoC5/Comparator.h"
 734              		.file 18 "Generated_Source\\PSoC5/Counter_Pulses.h"
 735              		.file 19 "Generated_Source\\PSoC5/Out_MAX232.h"
 736              		.file 20 "Generated_Source\\PSoC5/Pre_Ampli.h"
 737              		.file 21 "Generated_Source\\PSoC5/Threshold.h"
 738              		.file 22 "Generated_Source\\PSoC5/Timer_TX.h"
 739              		.file 23 "Generated_Source\\PSoC5/Interrupt_TX.h"
 740              		.file 24 "Generated_Source\\PSoC5/Interrupt_RX.h"
 741              		.file 25 "Generated_Source\\PSoC5/Interrupt_Xbee.h"