ARM GAS  C:\Users\Ludovic\AppData\Local\Temp\ccwg9E8o.s 			page 1


   1              		.syntax unified
   2              		.cpu cortex-m3
   3              		.fpu softvfp
   4              		.eabi_attribute 20, 1
   5              		.eabi_attribute 21, 1
   6              		.eabi_attribute 23, 3
   7              		.eabi_attribute 24, 1
   8              		.eabi_attribute 25, 1
   9              		.eabi_attribute 26, 1
  10              		.eabi_attribute 30, 1
  11              		.eabi_attribute 34, 1
  12              		.eabi_attribute 18, 4
  13              		.thumb
  14              		.file	"Out_MAX232.c"
  15              		.text
  16              	.Ltext0:
  17              		.cfi_sections	.debug_frame
  18              		.section	.text.Out_MAX232_Enable,"ax",%progbits
  19              		.align	2
  20              		.global	Out_MAX232_Enable
  21              		.thumb
  22              		.thumb_func
  23              		.type	Out_MAX232_Enable, %function
  24              	Out_MAX232_Enable:
  25              	.LFB2:
  26              		.file 1 "Generated_Source\\PSoC5\\Out_MAX232.c"
   1:Generated_Source\PSoC5/Out_MAX232.c **** /*******************************************************************************
   2:Generated_Source\PSoC5/Out_MAX232.c **** * File Name: Out_MAX232.c
   3:Generated_Source\PSoC5/Out_MAX232.c **** * Version 3.30
   4:Generated_Source\PSoC5/Out_MAX232.c **** *
   5:Generated_Source\PSoC5/Out_MAX232.c **** * Description:
   6:Generated_Source\PSoC5/Out_MAX232.c **** *  The PWM User Module consist of an 8 or 16-bit counter with two 8 or 16-bit
   7:Generated_Source\PSoC5/Out_MAX232.c **** *  comparitors. Each instance of this user module is capable of generating
   8:Generated_Source\PSoC5/Out_MAX232.c **** *  two PWM outputs with the same period. The pulse width is selectable between
   9:Generated_Source\PSoC5/Out_MAX232.c **** *  1 and 255/65535. The period is selectable between 2 and 255/65536 clocks.
  10:Generated_Source\PSoC5/Out_MAX232.c **** *  The compare value output may be configured to be active when the present
  11:Generated_Source\PSoC5/Out_MAX232.c **** *  counter is less than or less than/equal to the compare value.
  12:Generated_Source\PSoC5/Out_MAX232.c **** *  A terminal count output is also provided. It generates a pulse one clock
  13:Generated_Source\PSoC5/Out_MAX232.c **** *  width wide when the counter is equal to zero.
  14:Generated_Source\PSoC5/Out_MAX232.c **** *
  15:Generated_Source\PSoC5/Out_MAX232.c **** * Note:
  16:Generated_Source\PSoC5/Out_MAX232.c **** *
  17:Generated_Source\PSoC5/Out_MAX232.c **** *******************************************************************************
  18:Generated_Source\PSoC5/Out_MAX232.c **** * Copyright 2008-2014, Cypress Semiconductor Corporation.  All rights reserved.
  19:Generated_Source\PSoC5/Out_MAX232.c **** * You may use this file only in accordance with the license, terms, conditions,
  20:Generated_Source\PSoC5/Out_MAX232.c **** * disclaimers, and limitations in the end user license agreement accompanying
  21:Generated_Source\PSoC5/Out_MAX232.c **** * the software package with which this file was provided.
  22:Generated_Source\PSoC5/Out_MAX232.c **** ********************************************************************************/
  23:Generated_Source\PSoC5/Out_MAX232.c **** 
  24:Generated_Source\PSoC5/Out_MAX232.c **** #include "Out_MAX232.h"
  25:Generated_Source\PSoC5/Out_MAX232.c **** 
  26:Generated_Source\PSoC5/Out_MAX232.c **** /* Error message for removed <resource> through optimization */
  27:Generated_Source\PSoC5/Out_MAX232.c **** #ifdef Out_MAX232_PWMUDB_genblk1_ctrlreg__REMOVED
  28:Generated_Source\PSoC5/Out_MAX232.c ****     #error PWM_v3_30 detected with a constant 0 for the enable or \
  29:Generated_Source\PSoC5/Out_MAX232.c ****          constant 1 for reset. This will prevent the component from operating.
  30:Generated_Source\PSoC5/Out_MAX232.c **** #endif /* Out_MAX232_PWMUDB_genblk1_ctrlreg__REMOVED */
  31:Generated_Source\PSoC5/Out_MAX232.c **** 
ARM GAS  C:\Users\Ludovic\AppData\Local\Temp\ccwg9E8o.s 			page 2


  32:Generated_Source\PSoC5/Out_MAX232.c **** uint8 Out_MAX232_initVar = 0u;
  33:Generated_Source\PSoC5/Out_MAX232.c **** 
  34:Generated_Source\PSoC5/Out_MAX232.c **** 
  35:Generated_Source\PSoC5/Out_MAX232.c **** /*******************************************************************************
  36:Generated_Source\PSoC5/Out_MAX232.c **** * Function Name: Out_MAX232_Start
  37:Generated_Source\PSoC5/Out_MAX232.c **** ********************************************************************************
  38:Generated_Source\PSoC5/Out_MAX232.c **** *
  39:Generated_Source\PSoC5/Out_MAX232.c **** * Summary:
  40:Generated_Source\PSoC5/Out_MAX232.c **** *  The start function initializes the pwm with the default values, the
  41:Generated_Source\PSoC5/Out_MAX232.c **** *  enables the counter to begin counting.  It does not enable interrupts,
  42:Generated_Source\PSoC5/Out_MAX232.c **** *  the EnableInt command should be called if interrupt generation is required.
  43:Generated_Source\PSoC5/Out_MAX232.c **** *
  44:Generated_Source\PSoC5/Out_MAX232.c **** * Parameters:
  45:Generated_Source\PSoC5/Out_MAX232.c **** *  None
  46:Generated_Source\PSoC5/Out_MAX232.c **** *
  47:Generated_Source\PSoC5/Out_MAX232.c **** * Return:
  48:Generated_Source\PSoC5/Out_MAX232.c **** *  None
  49:Generated_Source\PSoC5/Out_MAX232.c **** *
  50:Generated_Source\PSoC5/Out_MAX232.c **** * Global variables:
  51:Generated_Source\PSoC5/Out_MAX232.c **** *  Out_MAX232_initVar: Is modified when this function is called for the
  52:Generated_Source\PSoC5/Out_MAX232.c **** *   first time. Is used to ensure that initialization happens only once.
  53:Generated_Source\PSoC5/Out_MAX232.c **** *
  54:Generated_Source\PSoC5/Out_MAX232.c **** *******************************************************************************/
  55:Generated_Source\PSoC5/Out_MAX232.c **** void Out_MAX232_Start(void) 
  56:Generated_Source\PSoC5/Out_MAX232.c **** {
  57:Generated_Source\PSoC5/Out_MAX232.c ****     /* If not Initialized then initialize all required hardware and software */
  58:Generated_Source\PSoC5/Out_MAX232.c ****     if(Out_MAX232_initVar == 0u)
  59:Generated_Source\PSoC5/Out_MAX232.c ****     {
  60:Generated_Source\PSoC5/Out_MAX232.c ****         Out_MAX232_Init();
  61:Generated_Source\PSoC5/Out_MAX232.c ****         Out_MAX232_initVar = 1u;
  62:Generated_Source\PSoC5/Out_MAX232.c ****     }
  63:Generated_Source\PSoC5/Out_MAX232.c ****     Out_MAX232_Enable();
  64:Generated_Source\PSoC5/Out_MAX232.c **** 
  65:Generated_Source\PSoC5/Out_MAX232.c **** }
  66:Generated_Source\PSoC5/Out_MAX232.c **** 
  67:Generated_Source\PSoC5/Out_MAX232.c **** 
  68:Generated_Source\PSoC5/Out_MAX232.c **** /*******************************************************************************
  69:Generated_Source\PSoC5/Out_MAX232.c **** * Function Name: Out_MAX232_Init
  70:Generated_Source\PSoC5/Out_MAX232.c **** ********************************************************************************
  71:Generated_Source\PSoC5/Out_MAX232.c **** *
  72:Generated_Source\PSoC5/Out_MAX232.c **** * Summary:
  73:Generated_Source\PSoC5/Out_MAX232.c **** *  Initialize component's parameters to the parameters set by user in the
  74:Generated_Source\PSoC5/Out_MAX232.c **** *  customizer of the component placed onto schematic. Usually called in
  75:Generated_Source\PSoC5/Out_MAX232.c **** *  Out_MAX232_Start().
  76:Generated_Source\PSoC5/Out_MAX232.c **** *
  77:Generated_Source\PSoC5/Out_MAX232.c **** * Parameters:
  78:Generated_Source\PSoC5/Out_MAX232.c **** *  None
  79:Generated_Source\PSoC5/Out_MAX232.c **** *
  80:Generated_Source\PSoC5/Out_MAX232.c **** * Return:
  81:Generated_Source\PSoC5/Out_MAX232.c **** *  None
  82:Generated_Source\PSoC5/Out_MAX232.c **** *
  83:Generated_Source\PSoC5/Out_MAX232.c **** *******************************************************************************/
  84:Generated_Source\PSoC5/Out_MAX232.c **** void Out_MAX232_Init(void) 
  85:Generated_Source\PSoC5/Out_MAX232.c **** {
  86:Generated_Source\PSoC5/Out_MAX232.c ****     #if (Out_MAX232_UsingFixedFunction || Out_MAX232_UseControl)
  87:Generated_Source\PSoC5/Out_MAX232.c ****         uint8 ctrl;
  88:Generated_Source\PSoC5/Out_MAX232.c ****     #endif /* (Out_MAX232_UsingFixedFunction || Out_MAX232_UseControl) */
ARM GAS  C:\Users\Ludovic\AppData\Local\Temp\ccwg9E8o.s 			page 3


  89:Generated_Source\PSoC5/Out_MAX232.c **** 
  90:Generated_Source\PSoC5/Out_MAX232.c ****     #if(!Out_MAX232_UsingFixedFunction)
  91:Generated_Source\PSoC5/Out_MAX232.c ****         #if(Out_MAX232_UseStatus)
  92:Generated_Source\PSoC5/Out_MAX232.c ****             /* Interrupt State Backup for Critical Region*/
  93:Generated_Source\PSoC5/Out_MAX232.c ****             uint8 Out_MAX232_interruptState;
  94:Generated_Source\PSoC5/Out_MAX232.c ****         #endif /* (Out_MAX232_UseStatus) */
  95:Generated_Source\PSoC5/Out_MAX232.c ****     #endif /* (!Out_MAX232_UsingFixedFunction) */
  96:Generated_Source\PSoC5/Out_MAX232.c **** 
  97:Generated_Source\PSoC5/Out_MAX232.c ****     #if (Out_MAX232_UsingFixedFunction)
  98:Generated_Source\PSoC5/Out_MAX232.c ****         /* You are allowed to write the compare value (FF only) */
  99:Generated_Source\PSoC5/Out_MAX232.c ****         Out_MAX232_CONTROL |= Out_MAX232_CFG0_MODE;
 100:Generated_Source\PSoC5/Out_MAX232.c ****         #if (Out_MAX232_DeadBand2_4)
 101:Generated_Source\PSoC5/Out_MAX232.c ****             Out_MAX232_CONTROL |= Out_MAX232_CFG0_DB;
 102:Generated_Source\PSoC5/Out_MAX232.c ****         #endif /* (Out_MAX232_DeadBand2_4) */
 103:Generated_Source\PSoC5/Out_MAX232.c **** 
 104:Generated_Source\PSoC5/Out_MAX232.c ****         ctrl = Out_MAX232_CONTROL3 & ((uint8 )(~Out_MAX232_CTRL_CMPMODE1_MASK));
 105:Generated_Source\PSoC5/Out_MAX232.c ****         Out_MAX232_CONTROL3 = ctrl | Out_MAX232_DEFAULT_COMPARE1_MODE;
 106:Generated_Source\PSoC5/Out_MAX232.c **** 
 107:Generated_Source\PSoC5/Out_MAX232.c ****          /* Clear and Set SYNCTC and SYNCCMP bits of RT1 register */
 108:Generated_Source\PSoC5/Out_MAX232.c ****         Out_MAX232_RT1 &= ((uint8)(~Out_MAX232_RT1_MASK));
 109:Generated_Source\PSoC5/Out_MAX232.c ****         Out_MAX232_RT1 |= Out_MAX232_SYNC;
 110:Generated_Source\PSoC5/Out_MAX232.c **** 
 111:Generated_Source\PSoC5/Out_MAX232.c ****         /*Enable DSI Sync all all inputs of the PWM*/
 112:Generated_Source\PSoC5/Out_MAX232.c ****         Out_MAX232_RT1 &= ((uint8)(~Out_MAX232_SYNCDSI_MASK));
 113:Generated_Source\PSoC5/Out_MAX232.c ****         Out_MAX232_RT1 |= Out_MAX232_SYNCDSI_EN;
 114:Generated_Source\PSoC5/Out_MAX232.c **** 
 115:Generated_Source\PSoC5/Out_MAX232.c ****     #elif (Out_MAX232_UseControl)
 116:Generated_Source\PSoC5/Out_MAX232.c ****         /* Set the default compare mode defined in the parameter */
 117:Generated_Source\PSoC5/Out_MAX232.c ****         ctrl = Out_MAX232_CONTROL & ((uint8)(~Out_MAX232_CTRL_CMPMODE2_MASK)) &
 118:Generated_Source\PSoC5/Out_MAX232.c ****                 ((uint8)(~Out_MAX232_CTRL_CMPMODE1_MASK));
 119:Generated_Source\PSoC5/Out_MAX232.c ****         Out_MAX232_CONTROL = ctrl | Out_MAX232_DEFAULT_COMPARE2_MODE |
 120:Generated_Source\PSoC5/Out_MAX232.c ****                                    Out_MAX232_DEFAULT_COMPARE1_MODE;
 121:Generated_Source\PSoC5/Out_MAX232.c ****     #endif /* (Out_MAX232_UsingFixedFunction) */
 122:Generated_Source\PSoC5/Out_MAX232.c **** 
 123:Generated_Source\PSoC5/Out_MAX232.c ****     #if (!Out_MAX232_UsingFixedFunction)
 124:Generated_Source\PSoC5/Out_MAX232.c ****         #if (Out_MAX232_Resolution == 8)
 125:Generated_Source\PSoC5/Out_MAX232.c ****             /* Set FIFO 0 to 1 byte register for period*/
 126:Generated_Source\PSoC5/Out_MAX232.c ****             Out_MAX232_AUX_CONTROLDP0 |= (Out_MAX232_AUX_CTRL_FIFO0_CLR);
 127:Generated_Source\PSoC5/Out_MAX232.c ****         #else /* (Out_MAX232_Resolution == 16)*/
 128:Generated_Source\PSoC5/Out_MAX232.c ****             /* Set FIFO 0 to 1 byte register for period */
 129:Generated_Source\PSoC5/Out_MAX232.c ****             Out_MAX232_AUX_CONTROLDP0 |= (Out_MAX232_AUX_CTRL_FIFO0_CLR);
 130:Generated_Source\PSoC5/Out_MAX232.c ****             Out_MAX232_AUX_CONTROLDP1 |= (Out_MAX232_AUX_CTRL_FIFO0_CLR);
 131:Generated_Source\PSoC5/Out_MAX232.c ****         #endif /* (Out_MAX232_Resolution == 8) */
 132:Generated_Source\PSoC5/Out_MAX232.c **** 
 133:Generated_Source\PSoC5/Out_MAX232.c ****         Out_MAX232_WriteCounter(Out_MAX232_INIT_PERIOD_VALUE);
 134:Generated_Source\PSoC5/Out_MAX232.c ****     #endif /* (!Out_MAX232_UsingFixedFunction) */
 135:Generated_Source\PSoC5/Out_MAX232.c **** 
 136:Generated_Source\PSoC5/Out_MAX232.c ****     Out_MAX232_WritePeriod(Out_MAX232_INIT_PERIOD_VALUE);
 137:Generated_Source\PSoC5/Out_MAX232.c **** 
 138:Generated_Source\PSoC5/Out_MAX232.c ****         #if (Out_MAX232_UseOneCompareMode)
 139:Generated_Source\PSoC5/Out_MAX232.c ****             Out_MAX232_WriteCompare(Out_MAX232_INIT_COMPARE_VALUE1);
 140:Generated_Source\PSoC5/Out_MAX232.c ****         #else
 141:Generated_Source\PSoC5/Out_MAX232.c ****             Out_MAX232_WriteCompare1(Out_MAX232_INIT_COMPARE_VALUE1);
 142:Generated_Source\PSoC5/Out_MAX232.c ****             Out_MAX232_WriteCompare2(Out_MAX232_INIT_COMPARE_VALUE2);
 143:Generated_Source\PSoC5/Out_MAX232.c ****         #endif /* (Out_MAX232_UseOneCompareMode) */
 144:Generated_Source\PSoC5/Out_MAX232.c **** 
 145:Generated_Source\PSoC5/Out_MAX232.c ****         #if (Out_MAX232_KillModeMinTime)
ARM GAS  C:\Users\Ludovic\AppData\Local\Temp\ccwg9E8o.s 			page 4


 146:Generated_Source\PSoC5/Out_MAX232.c ****             Out_MAX232_WriteKillTime(Out_MAX232_MinimumKillTime);
 147:Generated_Source\PSoC5/Out_MAX232.c ****         #endif /* (Out_MAX232_KillModeMinTime) */
 148:Generated_Source\PSoC5/Out_MAX232.c **** 
 149:Generated_Source\PSoC5/Out_MAX232.c ****         #if (Out_MAX232_DeadBandUsed)
 150:Generated_Source\PSoC5/Out_MAX232.c ****             Out_MAX232_WriteDeadTime(Out_MAX232_INIT_DEAD_TIME);
 151:Generated_Source\PSoC5/Out_MAX232.c ****         #endif /* (Out_MAX232_DeadBandUsed) */
 152:Generated_Source\PSoC5/Out_MAX232.c **** 
 153:Generated_Source\PSoC5/Out_MAX232.c ****     #if (Out_MAX232_UseStatus || Out_MAX232_UsingFixedFunction)
 154:Generated_Source\PSoC5/Out_MAX232.c ****         Out_MAX232_SetInterruptMode(Out_MAX232_INIT_INTERRUPTS_MODE);
 155:Generated_Source\PSoC5/Out_MAX232.c ****     #endif /* (Out_MAX232_UseStatus || Out_MAX232_UsingFixedFunction) */
 156:Generated_Source\PSoC5/Out_MAX232.c **** 
 157:Generated_Source\PSoC5/Out_MAX232.c ****     #if (Out_MAX232_UsingFixedFunction)
 158:Generated_Source\PSoC5/Out_MAX232.c ****         /* Globally Enable the Fixed Function Block chosen */
 159:Generated_Source\PSoC5/Out_MAX232.c ****         Out_MAX232_GLOBAL_ENABLE |= Out_MAX232_BLOCK_EN_MASK;
 160:Generated_Source\PSoC5/Out_MAX232.c ****         /* Set the Interrupt source to come from the status register */
 161:Generated_Source\PSoC5/Out_MAX232.c ****         Out_MAX232_CONTROL2 |= Out_MAX232_CTRL2_IRQ_SEL;
 162:Generated_Source\PSoC5/Out_MAX232.c ****     #else
 163:Generated_Source\PSoC5/Out_MAX232.c ****         #if(Out_MAX232_UseStatus)
 164:Generated_Source\PSoC5/Out_MAX232.c **** 
 165:Generated_Source\PSoC5/Out_MAX232.c ****             /* CyEnterCriticalRegion and CyExitCriticalRegion are used to mark following region cri
 166:Generated_Source\PSoC5/Out_MAX232.c ****             /* Enter Critical Region*/
 167:Generated_Source\PSoC5/Out_MAX232.c ****             Out_MAX232_interruptState = CyEnterCriticalSection();
 168:Generated_Source\PSoC5/Out_MAX232.c ****             /* Use the interrupt output of the status register for IRQ output */
 169:Generated_Source\PSoC5/Out_MAX232.c ****             Out_MAX232_STATUS_AUX_CTRL |= Out_MAX232_STATUS_ACTL_INT_EN_MASK;
 170:Generated_Source\PSoC5/Out_MAX232.c **** 
 171:Generated_Source\PSoC5/Out_MAX232.c ****              /* Exit Critical Region*/
 172:Generated_Source\PSoC5/Out_MAX232.c ****             CyExitCriticalSection(Out_MAX232_interruptState);
 173:Generated_Source\PSoC5/Out_MAX232.c **** 
 174:Generated_Source\PSoC5/Out_MAX232.c ****             /* Clear the FIFO to enable the Out_MAX232_STATUS_FIFOFULL
 175:Generated_Source\PSoC5/Out_MAX232.c ****                    bit to be set on FIFO full. */
 176:Generated_Source\PSoC5/Out_MAX232.c ****             Out_MAX232_ClearFIFO();
 177:Generated_Source\PSoC5/Out_MAX232.c ****         #endif /* (Out_MAX232_UseStatus) */
 178:Generated_Source\PSoC5/Out_MAX232.c ****     #endif /* (Out_MAX232_UsingFixedFunction) */
 179:Generated_Source\PSoC5/Out_MAX232.c **** }
 180:Generated_Source\PSoC5/Out_MAX232.c **** 
 181:Generated_Source\PSoC5/Out_MAX232.c **** 
 182:Generated_Source\PSoC5/Out_MAX232.c **** /*******************************************************************************
 183:Generated_Source\PSoC5/Out_MAX232.c **** * Function Name: Out_MAX232_Enable
 184:Generated_Source\PSoC5/Out_MAX232.c **** ********************************************************************************
 185:Generated_Source\PSoC5/Out_MAX232.c **** *
 186:Generated_Source\PSoC5/Out_MAX232.c **** * Summary:
 187:Generated_Source\PSoC5/Out_MAX232.c **** *  Enables the PWM block operation
 188:Generated_Source\PSoC5/Out_MAX232.c **** *
 189:Generated_Source\PSoC5/Out_MAX232.c **** * Parameters:
 190:Generated_Source\PSoC5/Out_MAX232.c **** *  None
 191:Generated_Source\PSoC5/Out_MAX232.c **** *
 192:Generated_Source\PSoC5/Out_MAX232.c **** * Return:
 193:Generated_Source\PSoC5/Out_MAX232.c **** *  None
 194:Generated_Source\PSoC5/Out_MAX232.c **** *
 195:Generated_Source\PSoC5/Out_MAX232.c **** * Side Effects:
 196:Generated_Source\PSoC5/Out_MAX232.c **** *  This works only if software enable mode is chosen
 197:Generated_Source\PSoC5/Out_MAX232.c **** *
 198:Generated_Source\PSoC5/Out_MAX232.c **** *******************************************************************************/
 199:Generated_Source\PSoC5/Out_MAX232.c **** void Out_MAX232_Enable(void) 
 200:Generated_Source\PSoC5/Out_MAX232.c **** {
  27              		.loc 1 200 0
  28              		.cfi_startproc
ARM GAS  C:\Users\Ludovic\AppData\Local\Temp\ccwg9E8o.s 			page 5


  29              		@ args = 0, pretend = 0, frame = 0
  30              		@ frame_needed = 0, uses_anonymous_args = 0
  31              		@ link register save eliminated.
  32 0000 7047     		bx	lr
  33              		.cfi_endproc
  34              	.LFE2:
  35              		.size	Out_MAX232_Enable, .-Out_MAX232_Enable
  36 0002 00BF     		.section	.text.Out_MAX232_Stop,"ax",%progbits
  37              		.align	2
  38              		.global	Out_MAX232_Stop
  39              		.thumb
  40              		.thumb_func
  41              		.type	Out_MAX232_Stop, %function
  42              	Out_MAX232_Stop:
  43              	.LFB3:
 201:Generated_Source\PSoC5/Out_MAX232.c ****     /* Globally Enable the Fixed Function Block chosen */
 202:Generated_Source\PSoC5/Out_MAX232.c ****     #if (Out_MAX232_UsingFixedFunction)
 203:Generated_Source\PSoC5/Out_MAX232.c ****         Out_MAX232_GLOBAL_ENABLE |= Out_MAX232_BLOCK_EN_MASK;
 204:Generated_Source\PSoC5/Out_MAX232.c ****         Out_MAX232_GLOBAL_STBY_ENABLE |= Out_MAX232_BLOCK_STBY_EN_MASK;
 205:Generated_Source\PSoC5/Out_MAX232.c ****     #endif /* (Out_MAX232_UsingFixedFunction) */
 206:Generated_Source\PSoC5/Out_MAX232.c **** 
 207:Generated_Source\PSoC5/Out_MAX232.c ****     /* Enable the PWM from the control register  */
 208:Generated_Source\PSoC5/Out_MAX232.c ****     #if (Out_MAX232_UseControl || Out_MAX232_UsingFixedFunction)
 209:Generated_Source\PSoC5/Out_MAX232.c ****         Out_MAX232_CONTROL |= Out_MAX232_CTRL_ENABLE;
 210:Generated_Source\PSoC5/Out_MAX232.c ****     #endif /* (Out_MAX232_UseControl || Out_MAX232_UsingFixedFunction) */
 211:Generated_Source\PSoC5/Out_MAX232.c **** }
 212:Generated_Source\PSoC5/Out_MAX232.c **** 
 213:Generated_Source\PSoC5/Out_MAX232.c **** 
 214:Generated_Source\PSoC5/Out_MAX232.c **** /*******************************************************************************
 215:Generated_Source\PSoC5/Out_MAX232.c **** * Function Name: Out_MAX232_Stop
 216:Generated_Source\PSoC5/Out_MAX232.c **** ********************************************************************************
 217:Generated_Source\PSoC5/Out_MAX232.c **** *
 218:Generated_Source\PSoC5/Out_MAX232.c **** * Summary:
 219:Generated_Source\PSoC5/Out_MAX232.c **** *  The stop function halts the PWM, but does not change any modes or disable
 220:Generated_Source\PSoC5/Out_MAX232.c **** *  interrupts.
 221:Generated_Source\PSoC5/Out_MAX232.c **** *
 222:Generated_Source\PSoC5/Out_MAX232.c **** * Parameters:
 223:Generated_Source\PSoC5/Out_MAX232.c **** *  None
 224:Generated_Source\PSoC5/Out_MAX232.c **** *
 225:Generated_Source\PSoC5/Out_MAX232.c **** * Return:
 226:Generated_Source\PSoC5/Out_MAX232.c **** *  None
 227:Generated_Source\PSoC5/Out_MAX232.c **** *
 228:Generated_Source\PSoC5/Out_MAX232.c **** * Side Effects:
 229:Generated_Source\PSoC5/Out_MAX232.c **** *  If the Enable mode is set to Hardware only then this function
 230:Generated_Source\PSoC5/Out_MAX232.c **** *  has no effect on the operation of the PWM
 231:Generated_Source\PSoC5/Out_MAX232.c **** *
 232:Generated_Source\PSoC5/Out_MAX232.c **** *******************************************************************************/
 233:Generated_Source\PSoC5/Out_MAX232.c **** void Out_MAX232_Stop(void) 
 234:Generated_Source\PSoC5/Out_MAX232.c **** {
  44              		.loc 1 234 0
  45              		.cfi_startproc
  46              		@ args = 0, pretend = 0, frame = 0
  47              		@ frame_needed = 0, uses_anonymous_args = 0
  48              		@ link register save eliminated.
  49 0000 7047     		bx	lr
  50              		.cfi_endproc
  51              	.LFE3:
ARM GAS  C:\Users\Ludovic\AppData\Local\Temp\ccwg9E8o.s 			page 6


  52              		.size	Out_MAX232_Stop, .-Out_MAX232_Stop
  53 0002 00BF     		.section	.text.Out_MAX232_WriteCounter,"ax",%progbits
  54              		.align	2
  55              		.global	Out_MAX232_WriteCounter
  56              		.thumb
  57              		.thumb_func
  58              		.type	Out_MAX232_WriteCounter, %function
  59              	Out_MAX232_WriteCounter:
  60              	.LFB4:
 235:Generated_Source\PSoC5/Out_MAX232.c ****     #if (Out_MAX232_UseControl || Out_MAX232_UsingFixedFunction)
 236:Generated_Source\PSoC5/Out_MAX232.c ****         Out_MAX232_CONTROL &= ((uint8)(~Out_MAX232_CTRL_ENABLE));
 237:Generated_Source\PSoC5/Out_MAX232.c ****     #endif /* (Out_MAX232_UseControl || Out_MAX232_UsingFixedFunction) */
 238:Generated_Source\PSoC5/Out_MAX232.c **** 
 239:Generated_Source\PSoC5/Out_MAX232.c ****     /* Globally disable the Fixed Function Block chosen */
 240:Generated_Source\PSoC5/Out_MAX232.c ****     #if (Out_MAX232_UsingFixedFunction)
 241:Generated_Source\PSoC5/Out_MAX232.c ****         Out_MAX232_GLOBAL_ENABLE &= ((uint8)(~Out_MAX232_BLOCK_EN_MASK));
 242:Generated_Source\PSoC5/Out_MAX232.c ****         Out_MAX232_GLOBAL_STBY_ENABLE &= ((uint8)(~Out_MAX232_BLOCK_STBY_EN_MASK));
 243:Generated_Source\PSoC5/Out_MAX232.c ****     #endif /* (Out_MAX232_UsingFixedFunction) */
 244:Generated_Source\PSoC5/Out_MAX232.c **** }
 245:Generated_Source\PSoC5/Out_MAX232.c **** 
 246:Generated_Source\PSoC5/Out_MAX232.c **** #if (Out_MAX232_UseOneCompareMode)
 247:Generated_Source\PSoC5/Out_MAX232.c ****     #if (Out_MAX232_CompareMode1SW)
 248:Generated_Source\PSoC5/Out_MAX232.c **** 
 249:Generated_Source\PSoC5/Out_MAX232.c **** 
 250:Generated_Source\PSoC5/Out_MAX232.c ****         /*******************************************************************************
 251:Generated_Source\PSoC5/Out_MAX232.c ****         * Function Name: Out_MAX232_SetCompareMode
 252:Generated_Source\PSoC5/Out_MAX232.c ****         ********************************************************************************
 253:Generated_Source\PSoC5/Out_MAX232.c ****         *
 254:Generated_Source\PSoC5/Out_MAX232.c ****         * Summary:
 255:Generated_Source\PSoC5/Out_MAX232.c ****         *  This function writes the Compare Mode for the pwm output when in Dither mode,
 256:Generated_Source\PSoC5/Out_MAX232.c ****         *  Center Align Mode or One Output Mode.
 257:Generated_Source\PSoC5/Out_MAX232.c ****         *
 258:Generated_Source\PSoC5/Out_MAX232.c ****         * Parameters:
 259:Generated_Source\PSoC5/Out_MAX232.c ****         *  comparemode:  The new compare mode for the PWM output. Use the compare types
 260:Generated_Source\PSoC5/Out_MAX232.c ****         *                defined in the H file as input arguments.
 261:Generated_Source\PSoC5/Out_MAX232.c ****         *
 262:Generated_Source\PSoC5/Out_MAX232.c ****         * Return:
 263:Generated_Source\PSoC5/Out_MAX232.c ****         *  None
 264:Generated_Source\PSoC5/Out_MAX232.c ****         *
 265:Generated_Source\PSoC5/Out_MAX232.c ****         *******************************************************************************/
 266:Generated_Source\PSoC5/Out_MAX232.c ****         void Out_MAX232_SetCompareMode(uint8 comparemode) 
 267:Generated_Source\PSoC5/Out_MAX232.c ****         {
 268:Generated_Source\PSoC5/Out_MAX232.c ****             #if(Out_MAX232_UsingFixedFunction)
 269:Generated_Source\PSoC5/Out_MAX232.c **** 
 270:Generated_Source\PSoC5/Out_MAX232.c ****                 #if(0 != Out_MAX232_CTRL_CMPMODE1_SHIFT)
 271:Generated_Source\PSoC5/Out_MAX232.c ****                     uint8 comparemodemasked = ((uint8)((uint8)comparemode << Out_MAX232_CTRL_CMPMOD
 272:Generated_Source\PSoC5/Out_MAX232.c ****                 #else
 273:Generated_Source\PSoC5/Out_MAX232.c ****                     uint8 comparemodemasked = comparemode;
 274:Generated_Source\PSoC5/Out_MAX232.c ****                 #endif /* (0 != Out_MAX232_CTRL_CMPMODE1_SHIFT) */
 275:Generated_Source\PSoC5/Out_MAX232.c **** 
 276:Generated_Source\PSoC5/Out_MAX232.c ****                 Out_MAX232_CONTROL3 &= ((uint8)(~Out_MAX232_CTRL_CMPMODE1_MASK)); /*Clear Existing 
 277:Generated_Source\PSoC5/Out_MAX232.c ****                 Out_MAX232_CONTROL3 |= comparemodemasked;
 278:Generated_Source\PSoC5/Out_MAX232.c **** 
 279:Generated_Source\PSoC5/Out_MAX232.c ****             #elif (Out_MAX232_UseControl)
 280:Generated_Source\PSoC5/Out_MAX232.c **** 
 281:Generated_Source\PSoC5/Out_MAX232.c ****                 #if(0 != Out_MAX232_CTRL_CMPMODE1_SHIFT)
 282:Generated_Source\PSoC5/Out_MAX232.c ****                     uint8 comparemode1masked = ((uint8)((uint8)comparemode << Out_MAX232_CTRL_CMPMO
ARM GAS  C:\Users\Ludovic\AppData\Local\Temp\ccwg9E8o.s 			page 7


 283:Generated_Source\PSoC5/Out_MAX232.c ****                                                 Out_MAX232_CTRL_CMPMODE1_MASK;
 284:Generated_Source\PSoC5/Out_MAX232.c ****                 #else
 285:Generated_Source\PSoC5/Out_MAX232.c ****                     uint8 comparemode1masked = comparemode & Out_MAX232_CTRL_CMPMODE1_MASK;
 286:Generated_Source\PSoC5/Out_MAX232.c ****                 #endif /* (0 != Out_MAX232_CTRL_CMPMODE1_SHIFT) */
 287:Generated_Source\PSoC5/Out_MAX232.c **** 
 288:Generated_Source\PSoC5/Out_MAX232.c ****                 #if(0 != Out_MAX232_CTRL_CMPMODE2_SHIFT)
 289:Generated_Source\PSoC5/Out_MAX232.c ****                     uint8 comparemode2masked = ((uint8)((uint8)comparemode << Out_MAX232_CTRL_CMPMO
 290:Generated_Source\PSoC5/Out_MAX232.c ****                                                Out_MAX232_CTRL_CMPMODE2_MASK;
 291:Generated_Source\PSoC5/Out_MAX232.c ****                 #else
 292:Generated_Source\PSoC5/Out_MAX232.c ****                     uint8 comparemode2masked = comparemode & Out_MAX232_CTRL_CMPMODE2_MASK;
 293:Generated_Source\PSoC5/Out_MAX232.c ****                 #endif /* (0 != Out_MAX232_CTRL_CMPMODE2_SHIFT) */
 294:Generated_Source\PSoC5/Out_MAX232.c **** 
 295:Generated_Source\PSoC5/Out_MAX232.c ****                 /*Clear existing mode */
 296:Generated_Source\PSoC5/Out_MAX232.c ****                 Out_MAX232_CONTROL &= ((uint8)(~(Out_MAX232_CTRL_CMPMODE1_MASK |
 297:Generated_Source\PSoC5/Out_MAX232.c ****                                             Out_MAX232_CTRL_CMPMODE2_MASK)));
 298:Generated_Source\PSoC5/Out_MAX232.c ****                 Out_MAX232_CONTROL |= (comparemode1masked | comparemode2masked);
 299:Generated_Source\PSoC5/Out_MAX232.c **** 
 300:Generated_Source\PSoC5/Out_MAX232.c ****             #else
 301:Generated_Source\PSoC5/Out_MAX232.c ****                 uint8 temp = comparemode;
 302:Generated_Source\PSoC5/Out_MAX232.c ****             #endif /* (Out_MAX232_UsingFixedFunction) */
 303:Generated_Source\PSoC5/Out_MAX232.c ****         }
 304:Generated_Source\PSoC5/Out_MAX232.c ****     #endif /* Out_MAX232_CompareMode1SW */
 305:Generated_Source\PSoC5/Out_MAX232.c **** 
 306:Generated_Source\PSoC5/Out_MAX232.c **** #else /* UseOneCompareMode */
 307:Generated_Source\PSoC5/Out_MAX232.c **** 
 308:Generated_Source\PSoC5/Out_MAX232.c ****     #if (Out_MAX232_CompareMode1SW)
 309:Generated_Source\PSoC5/Out_MAX232.c **** 
 310:Generated_Source\PSoC5/Out_MAX232.c **** 
 311:Generated_Source\PSoC5/Out_MAX232.c ****         /*******************************************************************************
 312:Generated_Source\PSoC5/Out_MAX232.c ****         * Function Name: Out_MAX232_SetCompareMode1
 313:Generated_Source\PSoC5/Out_MAX232.c ****         ********************************************************************************
 314:Generated_Source\PSoC5/Out_MAX232.c ****         *
 315:Generated_Source\PSoC5/Out_MAX232.c ****         * Summary:
 316:Generated_Source\PSoC5/Out_MAX232.c ****         *  This function writes the Compare Mode for the pwm or pwm1 output
 317:Generated_Source\PSoC5/Out_MAX232.c ****         *
 318:Generated_Source\PSoC5/Out_MAX232.c ****         * Parameters:
 319:Generated_Source\PSoC5/Out_MAX232.c ****         *  comparemode:  The new compare mode for the PWM output. Use the compare types
 320:Generated_Source\PSoC5/Out_MAX232.c ****         *                defined in the H file as input arguments.
 321:Generated_Source\PSoC5/Out_MAX232.c ****         *
 322:Generated_Source\PSoC5/Out_MAX232.c ****         * Return:
 323:Generated_Source\PSoC5/Out_MAX232.c ****         *  None
 324:Generated_Source\PSoC5/Out_MAX232.c ****         *
 325:Generated_Source\PSoC5/Out_MAX232.c ****         *******************************************************************************/
 326:Generated_Source\PSoC5/Out_MAX232.c ****         void Out_MAX232_SetCompareMode1(uint8 comparemode) 
 327:Generated_Source\PSoC5/Out_MAX232.c ****         {
 328:Generated_Source\PSoC5/Out_MAX232.c ****             #if(0 != Out_MAX232_CTRL_CMPMODE1_SHIFT)
 329:Generated_Source\PSoC5/Out_MAX232.c ****                 uint8 comparemodemasked = ((uint8)((uint8)comparemode << Out_MAX232_CTRL_CMPMODE1_S
 330:Generated_Source\PSoC5/Out_MAX232.c ****                                            Out_MAX232_CTRL_CMPMODE1_MASK;
 331:Generated_Source\PSoC5/Out_MAX232.c ****             #else
 332:Generated_Source\PSoC5/Out_MAX232.c ****                 uint8 comparemodemasked = comparemode & Out_MAX232_CTRL_CMPMODE1_MASK;
 333:Generated_Source\PSoC5/Out_MAX232.c ****             #endif /* (0 != Out_MAX232_CTRL_CMPMODE1_SHIFT) */
 334:Generated_Source\PSoC5/Out_MAX232.c **** 
 335:Generated_Source\PSoC5/Out_MAX232.c ****             #if (Out_MAX232_UseControl)
 336:Generated_Source\PSoC5/Out_MAX232.c ****                 Out_MAX232_CONTROL &= ((uint8)(~Out_MAX232_CTRL_CMPMODE1_MASK)); /*Clear existing m
 337:Generated_Source\PSoC5/Out_MAX232.c ****                 Out_MAX232_CONTROL |= comparemodemasked;
 338:Generated_Source\PSoC5/Out_MAX232.c ****             #endif /* (Out_MAX232_UseControl) */
 339:Generated_Source\PSoC5/Out_MAX232.c ****         }
ARM GAS  C:\Users\Ludovic\AppData\Local\Temp\ccwg9E8o.s 			page 8


 340:Generated_Source\PSoC5/Out_MAX232.c ****     #endif /* Out_MAX232_CompareMode1SW */
 341:Generated_Source\PSoC5/Out_MAX232.c **** 
 342:Generated_Source\PSoC5/Out_MAX232.c **** #if (Out_MAX232_CompareMode2SW)
 343:Generated_Source\PSoC5/Out_MAX232.c **** 
 344:Generated_Source\PSoC5/Out_MAX232.c **** 
 345:Generated_Source\PSoC5/Out_MAX232.c ****     /*******************************************************************************
 346:Generated_Source\PSoC5/Out_MAX232.c ****     * Function Name: Out_MAX232_SetCompareMode2
 347:Generated_Source\PSoC5/Out_MAX232.c ****     ********************************************************************************
 348:Generated_Source\PSoC5/Out_MAX232.c ****     *
 349:Generated_Source\PSoC5/Out_MAX232.c ****     * Summary:
 350:Generated_Source\PSoC5/Out_MAX232.c ****     *  This function writes the Compare Mode for the pwm or pwm2 output
 351:Generated_Source\PSoC5/Out_MAX232.c ****     *
 352:Generated_Source\PSoC5/Out_MAX232.c ****     * Parameters:
 353:Generated_Source\PSoC5/Out_MAX232.c ****     *  comparemode:  The new compare mode for the PWM output. Use the compare types
 354:Generated_Source\PSoC5/Out_MAX232.c ****     *                defined in the H file as input arguments.
 355:Generated_Source\PSoC5/Out_MAX232.c ****     *
 356:Generated_Source\PSoC5/Out_MAX232.c ****     * Return:
 357:Generated_Source\PSoC5/Out_MAX232.c ****     *  None
 358:Generated_Source\PSoC5/Out_MAX232.c ****     *
 359:Generated_Source\PSoC5/Out_MAX232.c ****     *******************************************************************************/
 360:Generated_Source\PSoC5/Out_MAX232.c ****     void Out_MAX232_SetCompareMode2(uint8 comparemode) 
 361:Generated_Source\PSoC5/Out_MAX232.c ****     {
 362:Generated_Source\PSoC5/Out_MAX232.c **** 
 363:Generated_Source\PSoC5/Out_MAX232.c ****         #if(0 != Out_MAX232_CTRL_CMPMODE2_SHIFT)
 364:Generated_Source\PSoC5/Out_MAX232.c ****             uint8 comparemodemasked = ((uint8)((uint8)comparemode << Out_MAX232_CTRL_CMPMODE2_SHIFT
 365:Generated_Source\PSoC5/Out_MAX232.c ****                                                  Out_MAX232_CTRL_CMPMODE2_MASK;
 366:Generated_Source\PSoC5/Out_MAX232.c ****         #else
 367:Generated_Source\PSoC5/Out_MAX232.c ****             uint8 comparemodemasked = comparemode & Out_MAX232_CTRL_CMPMODE2_MASK;
 368:Generated_Source\PSoC5/Out_MAX232.c ****         #endif /* (0 != Out_MAX232_CTRL_CMPMODE2_SHIFT) */
 369:Generated_Source\PSoC5/Out_MAX232.c **** 
 370:Generated_Source\PSoC5/Out_MAX232.c ****         #if (Out_MAX232_UseControl)
 371:Generated_Source\PSoC5/Out_MAX232.c ****             Out_MAX232_CONTROL &= ((uint8)(~Out_MAX232_CTRL_CMPMODE2_MASK)); /*Clear existing mode 
 372:Generated_Source\PSoC5/Out_MAX232.c ****             Out_MAX232_CONTROL |= comparemodemasked;
 373:Generated_Source\PSoC5/Out_MAX232.c ****         #endif /* (Out_MAX232_UseControl) */
 374:Generated_Source\PSoC5/Out_MAX232.c ****     }
 375:Generated_Source\PSoC5/Out_MAX232.c ****     #endif /*Out_MAX232_CompareMode2SW */
 376:Generated_Source\PSoC5/Out_MAX232.c **** 
 377:Generated_Source\PSoC5/Out_MAX232.c **** #endif /* UseOneCompareMode */
 378:Generated_Source\PSoC5/Out_MAX232.c **** 
 379:Generated_Source\PSoC5/Out_MAX232.c **** 
 380:Generated_Source\PSoC5/Out_MAX232.c **** #if (!Out_MAX232_UsingFixedFunction)
 381:Generated_Source\PSoC5/Out_MAX232.c **** 
 382:Generated_Source\PSoC5/Out_MAX232.c **** 
 383:Generated_Source\PSoC5/Out_MAX232.c ****     /*******************************************************************************
 384:Generated_Source\PSoC5/Out_MAX232.c ****     * Function Name: Out_MAX232_WriteCounter
 385:Generated_Source\PSoC5/Out_MAX232.c ****     ********************************************************************************
 386:Generated_Source\PSoC5/Out_MAX232.c ****     *
 387:Generated_Source\PSoC5/Out_MAX232.c ****     * Summary:
 388:Generated_Source\PSoC5/Out_MAX232.c ****     *  Writes a new counter value directly to the counter register. This will be
 389:Generated_Source\PSoC5/Out_MAX232.c ****     *  implemented for that currently running period and only that period. This API
 390:Generated_Source\PSoC5/Out_MAX232.c ****     *  is valid only for UDB implementation and not available for fixed function
 391:Generated_Source\PSoC5/Out_MAX232.c ****     *  PWM implementation.
 392:Generated_Source\PSoC5/Out_MAX232.c ****     *
 393:Generated_Source\PSoC5/Out_MAX232.c ****     * Parameters:
 394:Generated_Source\PSoC5/Out_MAX232.c ****     *  counter:  The period new period counter value.
 395:Generated_Source\PSoC5/Out_MAX232.c ****     *
 396:Generated_Source\PSoC5/Out_MAX232.c ****     * Return:
ARM GAS  C:\Users\Ludovic\AppData\Local\Temp\ccwg9E8o.s 			page 9


 397:Generated_Source\PSoC5/Out_MAX232.c ****     *  None
 398:Generated_Source\PSoC5/Out_MAX232.c ****     *
 399:Generated_Source\PSoC5/Out_MAX232.c ****     * Side Effects:
 400:Generated_Source\PSoC5/Out_MAX232.c ****     *  The PWM Period will be reloaded when a counter value will be a zero
 401:Generated_Source\PSoC5/Out_MAX232.c ****     *
 402:Generated_Source\PSoC5/Out_MAX232.c ****     *******************************************************************************/
 403:Generated_Source\PSoC5/Out_MAX232.c ****     void Out_MAX232_WriteCounter(uint16 counter) \
 404:Generated_Source\PSoC5/Out_MAX232.c ****                                        
 405:Generated_Source\PSoC5/Out_MAX232.c ****     {
  61              		.loc 1 405 0
  62              		.cfi_startproc
  63              		@ args = 0, pretend = 0, frame = 0
  64              		@ frame_needed = 0, uses_anonymous_args = 0
  65              		@ link register save eliminated.
  66              	.LVL0:
 406:Generated_Source\PSoC5/Out_MAX232.c ****         CY_SET_REG16(Out_MAX232_COUNTER_LSB_PTR, counter);
  67              		.loc 1 406 0
  68 0000 014B     		ldr	r3, .L4
  69 0002 1880     		strh	r0, [r3]	@ movhi
  70 0004 7047     		bx	lr
  71              	.L5:
  72 0006 00BF     		.align	2
  73              	.L4:
  74 0008 146A0040 		.word	1073768980
  75              		.cfi_endproc
  76              	.LFE4:
  77              		.size	Out_MAX232_WriteCounter, .-Out_MAX232_WriteCounter
  78              		.section	.text.Out_MAX232_ReadCounter,"ax",%progbits
  79              		.align	2
  80              		.global	Out_MAX232_ReadCounter
  81              		.thumb
  82              		.thumb_func
  83              		.type	Out_MAX232_ReadCounter, %function
  84              	Out_MAX232_ReadCounter:
  85              	.LFB5:
 407:Generated_Source\PSoC5/Out_MAX232.c ****     }
 408:Generated_Source\PSoC5/Out_MAX232.c **** 
 409:Generated_Source\PSoC5/Out_MAX232.c **** 
 410:Generated_Source\PSoC5/Out_MAX232.c ****     /*******************************************************************************
 411:Generated_Source\PSoC5/Out_MAX232.c ****     * Function Name: Out_MAX232_ReadCounter
 412:Generated_Source\PSoC5/Out_MAX232.c ****     ********************************************************************************
 413:Generated_Source\PSoC5/Out_MAX232.c ****     *
 414:Generated_Source\PSoC5/Out_MAX232.c ****     * Summary:
 415:Generated_Source\PSoC5/Out_MAX232.c ****     *  This function returns the current value of the counter.  It doesn't matter
 416:Generated_Source\PSoC5/Out_MAX232.c ****     *  if the counter is enabled or running.
 417:Generated_Source\PSoC5/Out_MAX232.c ****     *
 418:Generated_Source\PSoC5/Out_MAX232.c ****     * Parameters:
 419:Generated_Source\PSoC5/Out_MAX232.c ****     *  None
 420:Generated_Source\PSoC5/Out_MAX232.c ****     *
 421:Generated_Source\PSoC5/Out_MAX232.c ****     * Return:
 422:Generated_Source\PSoC5/Out_MAX232.c ****     *  The current value of the counter.
 423:Generated_Source\PSoC5/Out_MAX232.c ****     *
 424:Generated_Source\PSoC5/Out_MAX232.c ****     *******************************************************************************/
 425:Generated_Source\PSoC5/Out_MAX232.c ****     uint16 Out_MAX232_ReadCounter(void) 
 426:Generated_Source\PSoC5/Out_MAX232.c ****     {
  86              		.loc 1 426 0
  87              		.cfi_startproc
ARM GAS  C:\Users\Ludovic\AppData\Local\Temp\ccwg9E8o.s 			page 10


  88              		@ args = 0, pretend = 0, frame = 0
  89              		@ frame_needed = 0, uses_anonymous_args = 0
  90              		@ link register save eliminated.
 427:Generated_Source\PSoC5/Out_MAX232.c ****         /* Force capture by reading Accumulator */
 428:Generated_Source\PSoC5/Out_MAX232.c ****         /* Must first do a software capture to be able to read the counter */
 429:Generated_Source\PSoC5/Out_MAX232.c ****         /* It is up to the user code to make sure there isn't already captured data in the FIFO */
 430:Generated_Source\PSoC5/Out_MAX232.c ****           (void)CY_GET_REG8(Out_MAX232_COUNTERCAP_LSB_PTR_8BIT);
  91              		.loc 1 430 0
  92 0000 024B     		ldr	r3, .L7
  93 0002 1B78     		ldrb	r3, [r3]	@ zero_extendqisi2
 431:Generated_Source\PSoC5/Out_MAX232.c **** 
 432:Generated_Source\PSoC5/Out_MAX232.c ****         /* Read the data from the FIFO */
 433:Generated_Source\PSoC5/Out_MAX232.c ****         return (CY_GET_REG16(Out_MAX232_CAPTURE_LSB_PTR));
  94              		.loc 1 433 0
  95 0004 024B     		ldr	r3, .L7+4
  96 0006 1888     		ldrh	r0, [r3]
 434:Generated_Source\PSoC5/Out_MAX232.c ****     }
  97              		.loc 1 434 0
  98 0008 80B2     		uxth	r0, r0
  99 000a 7047     		bx	lr
 100              	.L8:
 101              		.align	2
 102              	.L7:
 103 000c 1A650040 		.word	1073767706
 104 0010 B46A0040 		.word	1073769140
 105              		.cfi_endproc
 106              	.LFE5:
 107              		.size	Out_MAX232_ReadCounter, .-Out_MAX232_ReadCounter
 108              		.section	.text.Out_MAX232_WritePeriod,"ax",%progbits
 109              		.align	2
 110              		.global	Out_MAX232_WritePeriod
 111              		.thumb
 112              		.thumb_func
 113              		.type	Out_MAX232_WritePeriod, %function
 114              	Out_MAX232_WritePeriod:
 115              	.LFB6:
 435:Generated_Source\PSoC5/Out_MAX232.c **** 
 436:Generated_Source\PSoC5/Out_MAX232.c ****     #if (Out_MAX232_UseStatus)
 437:Generated_Source\PSoC5/Out_MAX232.c **** 
 438:Generated_Source\PSoC5/Out_MAX232.c **** 
 439:Generated_Source\PSoC5/Out_MAX232.c ****         /*******************************************************************************
 440:Generated_Source\PSoC5/Out_MAX232.c ****         * Function Name: Out_MAX232_ClearFIFO
 441:Generated_Source\PSoC5/Out_MAX232.c ****         ********************************************************************************
 442:Generated_Source\PSoC5/Out_MAX232.c ****         *
 443:Generated_Source\PSoC5/Out_MAX232.c ****         * Summary:
 444:Generated_Source\PSoC5/Out_MAX232.c ****         *  This function clears all capture data from the capture FIFO
 445:Generated_Source\PSoC5/Out_MAX232.c ****         *
 446:Generated_Source\PSoC5/Out_MAX232.c ****         * Parameters:
 447:Generated_Source\PSoC5/Out_MAX232.c ****         *  None
 448:Generated_Source\PSoC5/Out_MAX232.c ****         *
 449:Generated_Source\PSoC5/Out_MAX232.c ****         * Return:
 450:Generated_Source\PSoC5/Out_MAX232.c ****         *  None
 451:Generated_Source\PSoC5/Out_MAX232.c ****         *
 452:Generated_Source\PSoC5/Out_MAX232.c ****         *******************************************************************************/
 453:Generated_Source\PSoC5/Out_MAX232.c ****         void Out_MAX232_ClearFIFO(void) 
 454:Generated_Source\PSoC5/Out_MAX232.c ****         {
 455:Generated_Source\PSoC5/Out_MAX232.c ****             while(0u != (Out_MAX232_ReadStatusRegister() & Out_MAX232_STATUS_FIFONEMPTY))
ARM GAS  C:\Users\Ludovic\AppData\Local\Temp\ccwg9E8o.s 			page 11


 456:Generated_Source\PSoC5/Out_MAX232.c ****             {
 457:Generated_Source\PSoC5/Out_MAX232.c ****                 (void)Out_MAX232_ReadCapture();
 458:Generated_Source\PSoC5/Out_MAX232.c ****             }
 459:Generated_Source\PSoC5/Out_MAX232.c ****         }
 460:Generated_Source\PSoC5/Out_MAX232.c **** 
 461:Generated_Source\PSoC5/Out_MAX232.c ****     #endif /* Out_MAX232_UseStatus */
 462:Generated_Source\PSoC5/Out_MAX232.c **** 
 463:Generated_Source\PSoC5/Out_MAX232.c **** #endif /* !Out_MAX232_UsingFixedFunction */
 464:Generated_Source\PSoC5/Out_MAX232.c **** 
 465:Generated_Source\PSoC5/Out_MAX232.c **** 
 466:Generated_Source\PSoC5/Out_MAX232.c **** /*******************************************************************************
 467:Generated_Source\PSoC5/Out_MAX232.c **** * Function Name: Out_MAX232_WritePeriod
 468:Generated_Source\PSoC5/Out_MAX232.c **** ********************************************************************************
 469:Generated_Source\PSoC5/Out_MAX232.c **** *
 470:Generated_Source\PSoC5/Out_MAX232.c **** * Summary:
 471:Generated_Source\PSoC5/Out_MAX232.c **** *  This function is used to change the period of the counter.  The new period
 472:Generated_Source\PSoC5/Out_MAX232.c **** *  will be loaded the next time terminal count is detected.
 473:Generated_Source\PSoC5/Out_MAX232.c **** *
 474:Generated_Source\PSoC5/Out_MAX232.c **** * Parameters:
 475:Generated_Source\PSoC5/Out_MAX232.c **** *  period:  Period value. May be between 1 and (2^Resolution)-1.  A value of 0
 476:Generated_Source\PSoC5/Out_MAX232.c **** *           will result in the counter remaining at zero.
 477:Generated_Source\PSoC5/Out_MAX232.c **** *
 478:Generated_Source\PSoC5/Out_MAX232.c **** * Return:
 479:Generated_Source\PSoC5/Out_MAX232.c **** *  None
 480:Generated_Source\PSoC5/Out_MAX232.c **** *
 481:Generated_Source\PSoC5/Out_MAX232.c **** *******************************************************************************/
 482:Generated_Source\PSoC5/Out_MAX232.c **** void Out_MAX232_WritePeriod(uint16 period) 
 483:Generated_Source\PSoC5/Out_MAX232.c **** {
 116              		.loc 1 483 0
 117              		.cfi_startproc
 118              		@ args = 0, pretend = 0, frame = 0
 119              		@ frame_needed = 0, uses_anonymous_args = 0
 120              		@ link register save eliminated.
 121              	.LVL1:
 484:Generated_Source\PSoC5/Out_MAX232.c ****     #if(Out_MAX232_UsingFixedFunction)
 485:Generated_Source\PSoC5/Out_MAX232.c ****         CY_SET_REG16(Out_MAX232_PERIOD_LSB_PTR, (uint16)period);
 486:Generated_Source\PSoC5/Out_MAX232.c ****     #else
 487:Generated_Source\PSoC5/Out_MAX232.c ****         CY_SET_REG16(Out_MAX232_PERIOD_LSB_PTR, period);
 122              		.loc 1 487 0
 123 0000 014B     		ldr	r3, .L10
 124 0002 1880     		strh	r0, [r3]	@ movhi
 125 0004 7047     		bx	lr
 126              	.L11:
 127 0006 00BF     		.align	2
 128              	.L10:
 129 0008 946A0040 		.word	1073769108
 130              		.cfi_endproc
 131              	.LFE6:
 132              		.size	Out_MAX232_WritePeriod, .-Out_MAX232_WritePeriod
 133              		.section	.text.Out_MAX232_WriteCompare1,"ax",%progbits
 134              		.align	2
 135              		.global	Out_MAX232_WriteCompare1
 136              		.thumb
 137              		.thumb_func
 138              		.type	Out_MAX232_WriteCompare1, %function
 139              	Out_MAX232_WriteCompare1:
 140              	.LFB7:
ARM GAS  C:\Users\Ludovic\AppData\Local\Temp\ccwg9E8o.s 			page 12


 488:Generated_Source\PSoC5/Out_MAX232.c ****     #endif /* (Out_MAX232_UsingFixedFunction) */
 489:Generated_Source\PSoC5/Out_MAX232.c **** }
 490:Generated_Source\PSoC5/Out_MAX232.c **** 
 491:Generated_Source\PSoC5/Out_MAX232.c **** #if (Out_MAX232_UseOneCompareMode)
 492:Generated_Source\PSoC5/Out_MAX232.c **** 
 493:Generated_Source\PSoC5/Out_MAX232.c **** 
 494:Generated_Source\PSoC5/Out_MAX232.c ****     /*******************************************************************************
 495:Generated_Source\PSoC5/Out_MAX232.c ****     * Function Name: Out_MAX232_WriteCompare
 496:Generated_Source\PSoC5/Out_MAX232.c ****     ********************************************************************************
 497:Generated_Source\PSoC5/Out_MAX232.c ****     *
 498:Generated_Source\PSoC5/Out_MAX232.c ****     * Summary:
 499:Generated_Source\PSoC5/Out_MAX232.c ****     *  This funtion is used to change the compare1 value when the PWM is in Dither
 500:Generated_Source\PSoC5/Out_MAX232.c ****     *  mode. The compare output will reflect the new value on the next UDB clock.
 501:Generated_Source\PSoC5/Out_MAX232.c ****     *  The compare output will be driven high when the present counter value is
 502:Generated_Source\PSoC5/Out_MAX232.c ****     *  compared to the compare value based on the compare mode defined in
 503:Generated_Source\PSoC5/Out_MAX232.c ****     *  Dither Mode.
 504:Generated_Source\PSoC5/Out_MAX232.c ****     *
 505:Generated_Source\PSoC5/Out_MAX232.c ****     * Parameters:
 506:Generated_Source\PSoC5/Out_MAX232.c ****     *  compare:  New compare value.
 507:Generated_Source\PSoC5/Out_MAX232.c ****     *
 508:Generated_Source\PSoC5/Out_MAX232.c ****     * Return:
 509:Generated_Source\PSoC5/Out_MAX232.c ****     *  None
 510:Generated_Source\PSoC5/Out_MAX232.c ****     *
 511:Generated_Source\PSoC5/Out_MAX232.c ****     * Side Effects:
 512:Generated_Source\PSoC5/Out_MAX232.c ****     *  This function is only available if the PWM mode parameter is set to
 513:Generated_Source\PSoC5/Out_MAX232.c ****     *  Dither Mode, Center Aligned Mode or One Output Mode
 514:Generated_Source\PSoC5/Out_MAX232.c ****     *
 515:Generated_Source\PSoC5/Out_MAX232.c ****     *******************************************************************************/
 516:Generated_Source\PSoC5/Out_MAX232.c ****     void Out_MAX232_WriteCompare(uint16 compare) \
 517:Generated_Source\PSoC5/Out_MAX232.c ****                                        
 518:Generated_Source\PSoC5/Out_MAX232.c ****     {
 519:Generated_Source\PSoC5/Out_MAX232.c ****         #if(Out_MAX232_UsingFixedFunction)
 520:Generated_Source\PSoC5/Out_MAX232.c ****             CY_SET_REG16(Out_MAX232_COMPARE1_LSB_PTR, (uint16)compare);
 521:Generated_Source\PSoC5/Out_MAX232.c ****         #else
 522:Generated_Source\PSoC5/Out_MAX232.c ****             CY_SET_REG16(Out_MAX232_COMPARE1_LSB_PTR, compare);
 523:Generated_Source\PSoC5/Out_MAX232.c ****         #endif /* (Out_MAX232_UsingFixedFunction) */
 524:Generated_Source\PSoC5/Out_MAX232.c **** 
 525:Generated_Source\PSoC5/Out_MAX232.c ****         #if (Out_MAX232_PWMMode == Out_MAX232__B_PWM__DITHER)
 526:Generated_Source\PSoC5/Out_MAX232.c ****             #if(Out_MAX232_UsingFixedFunction)
 527:Generated_Source\PSoC5/Out_MAX232.c ****                 CY_SET_REG16(Out_MAX232_COMPARE2_LSB_PTR, (uint16)(compare + 1u));
 528:Generated_Source\PSoC5/Out_MAX232.c ****             #else
 529:Generated_Source\PSoC5/Out_MAX232.c ****                 CY_SET_REG16(Out_MAX232_COMPARE2_LSB_PTR, (compare + 1u));
 530:Generated_Source\PSoC5/Out_MAX232.c ****             #endif /* (Out_MAX232_UsingFixedFunction) */
 531:Generated_Source\PSoC5/Out_MAX232.c ****         #endif /* (Out_MAX232_PWMMode == Out_MAX232__B_PWM__DITHER) */
 532:Generated_Source\PSoC5/Out_MAX232.c ****     }
 533:Generated_Source\PSoC5/Out_MAX232.c **** 
 534:Generated_Source\PSoC5/Out_MAX232.c **** 
 535:Generated_Source\PSoC5/Out_MAX232.c **** #else
 536:Generated_Source\PSoC5/Out_MAX232.c **** 
 537:Generated_Source\PSoC5/Out_MAX232.c **** 
 538:Generated_Source\PSoC5/Out_MAX232.c ****     /*******************************************************************************
 539:Generated_Source\PSoC5/Out_MAX232.c ****     * Function Name: Out_MAX232_WriteCompare1
 540:Generated_Source\PSoC5/Out_MAX232.c ****     ********************************************************************************
 541:Generated_Source\PSoC5/Out_MAX232.c ****     *
 542:Generated_Source\PSoC5/Out_MAX232.c ****     * Summary:
 543:Generated_Source\PSoC5/Out_MAX232.c ****     *  This funtion is used to change the compare1 value.  The compare output will
 544:Generated_Source\PSoC5/Out_MAX232.c ****     *  reflect the new value on the next UDB clock.  The compare output will be
ARM GAS  C:\Users\Ludovic\AppData\Local\Temp\ccwg9E8o.s 			page 13


 545:Generated_Source\PSoC5/Out_MAX232.c ****     *  driven high when the present counter value is less than or less than or
 546:Generated_Source\PSoC5/Out_MAX232.c ****     *  equal to the compare register, depending on the mode.
 547:Generated_Source\PSoC5/Out_MAX232.c ****     *
 548:Generated_Source\PSoC5/Out_MAX232.c ****     * Parameters:
 549:Generated_Source\PSoC5/Out_MAX232.c ****     *  compare:  New compare value.
 550:Generated_Source\PSoC5/Out_MAX232.c ****     *
 551:Generated_Source\PSoC5/Out_MAX232.c ****     * Return:
 552:Generated_Source\PSoC5/Out_MAX232.c ****     *  None
 553:Generated_Source\PSoC5/Out_MAX232.c ****     *
 554:Generated_Source\PSoC5/Out_MAX232.c ****     *******************************************************************************/
 555:Generated_Source\PSoC5/Out_MAX232.c ****     void Out_MAX232_WriteCompare1(uint16 compare) \
 556:Generated_Source\PSoC5/Out_MAX232.c ****                                         
 557:Generated_Source\PSoC5/Out_MAX232.c ****     {
 141              		.loc 1 557 0
 142              		.cfi_startproc
 143              		@ args = 0, pretend = 0, frame = 0
 144              		@ frame_needed = 0, uses_anonymous_args = 0
 145              		@ link register save eliminated.
 146              	.LVL2:
 558:Generated_Source\PSoC5/Out_MAX232.c ****         #if(Out_MAX232_UsingFixedFunction)
 559:Generated_Source\PSoC5/Out_MAX232.c ****             CY_SET_REG16(Out_MAX232_COMPARE1_LSB_PTR, (uint16)compare);
 560:Generated_Source\PSoC5/Out_MAX232.c ****         #else
 561:Generated_Source\PSoC5/Out_MAX232.c ****             CY_SET_REG16(Out_MAX232_COMPARE1_LSB_PTR, compare);
 147              		.loc 1 561 0
 148 0000 014B     		ldr	r3, .L13
 149 0002 1880     		strh	r0, [r3]	@ movhi
 150 0004 7047     		bx	lr
 151              	.L14:
 152 0006 00BF     		.align	2
 153              	.L13:
 154 0008 546A0040 		.word	1073769044
 155              		.cfi_endproc
 156              	.LFE7:
 157              		.size	Out_MAX232_WriteCompare1, .-Out_MAX232_WriteCompare1
 158              		.section	.text.Out_MAX232_WriteCompare2,"ax",%progbits
 159              		.align	2
 160              		.global	Out_MAX232_WriteCompare2
 161              		.thumb
 162              		.thumb_func
 163              		.type	Out_MAX232_WriteCompare2, %function
 164              	Out_MAX232_WriteCompare2:
 165              	.LFB8:
 562:Generated_Source\PSoC5/Out_MAX232.c ****         #endif /* (Out_MAX232_UsingFixedFunction) */
 563:Generated_Source\PSoC5/Out_MAX232.c ****     }
 564:Generated_Source\PSoC5/Out_MAX232.c **** 
 565:Generated_Source\PSoC5/Out_MAX232.c **** 
 566:Generated_Source\PSoC5/Out_MAX232.c ****     /*******************************************************************************
 567:Generated_Source\PSoC5/Out_MAX232.c ****     * Function Name: Out_MAX232_WriteCompare2
 568:Generated_Source\PSoC5/Out_MAX232.c ****     ********************************************************************************
 569:Generated_Source\PSoC5/Out_MAX232.c ****     *
 570:Generated_Source\PSoC5/Out_MAX232.c ****     * Summary:
 571:Generated_Source\PSoC5/Out_MAX232.c ****     *  This funtion is used to change the compare value, for compare1 output.
 572:Generated_Source\PSoC5/Out_MAX232.c ****     *  The compare output will reflect the new value on the next UDB clock.
 573:Generated_Source\PSoC5/Out_MAX232.c ****     *  The compare output will be driven high when the present counter value is
 574:Generated_Source\PSoC5/Out_MAX232.c ****     *  less than or less than or equal to the compare register, depending on the
 575:Generated_Source\PSoC5/Out_MAX232.c ****     *  mode.
 576:Generated_Source\PSoC5/Out_MAX232.c ****     *
ARM GAS  C:\Users\Ludovic\AppData\Local\Temp\ccwg9E8o.s 			page 14


 577:Generated_Source\PSoC5/Out_MAX232.c ****     * Parameters:
 578:Generated_Source\PSoC5/Out_MAX232.c ****     *  compare:  New compare value.
 579:Generated_Source\PSoC5/Out_MAX232.c ****     *
 580:Generated_Source\PSoC5/Out_MAX232.c ****     * Return:
 581:Generated_Source\PSoC5/Out_MAX232.c ****     *  None
 582:Generated_Source\PSoC5/Out_MAX232.c ****     *
 583:Generated_Source\PSoC5/Out_MAX232.c ****     *******************************************************************************/
 584:Generated_Source\PSoC5/Out_MAX232.c ****     void Out_MAX232_WriteCompare2(uint16 compare) \
 585:Generated_Source\PSoC5/Out_MAX232.c ****                                         
 586:Generated_Source\PSoC5/Out_MAX232.c ****     {
 166              		.loc 1 586 0
 167              		.cfi_startproc
 168              		@ args = 0, pretend = 0, frame = 0
 169              		@ frame_needed = 0, uses_anonymous_args = 0
 170              		@ link register save eliminated.
 171              	.LVL3:
 587:Generated_Source\PSoC5/Out_MAX232.c ****         #if(Out_MAX232_UsingFixedFunction)
 588:Generated_Source\PSoC5/Out_MAX232.c ****             CY_SET_REG16(Out_MAX232_COMPARE2_LSB_PTR, compare);
 589:Generated_Source\PSoC5/Out_MAX232.c ****         #else
 590:Generated_Source\PSoC5/Out_MAX232.c ****             CY_SET_REG16(Out_MAX232_COMPARE2_LSB_PTR, compare);
 172              		.loc 1 590 0
 173 0000 014B     		ldr	r3, .L16
 174 0002 1880     		strh	r0, [r3]	@ movhi
 175 0004 7047     		bx	lr
 176              	.L17:
 177 0006 00BF     		.align	2
 178              	.L16:
 179 0008 746A0040 		.word	1073769076
 180              		.cfi_endproc
 181              	.LFE8:
 182              		.size	Out_MAX232_WriteCompare2, .-Out_MAX232_WriteCompare2
 183              		.section	.text.Out_MAX232_Init,"ax",%progbits
 184              		.align	2
 185              		.global	Out_MAX232_Init
 186              		.thumb
 187              		.thumb_func
 188              		.type	Out_MAX232_Init, %function
 189              	Out_MAX232_Init:
 190              	.LFB1:
  85:Generated_Source\PSoC5/Out_MAX232.c ****     #if (Out_MAX232_UsingFixedFunction || Out_MAX232_UseControl)
 191              		.loc 1 85 0
 192              		.cfi_startproc
 193              		@ args = 0, pretend = 0, frame = 0
 194              		@ frame_needed = 0, uses_anonymous_args = 0
 195 0000 08B5     		push	{r3, lr}
 196              		.cfi_def_cfa_offset 8
 197              		.cfi_offset 3, -8
 198              		.cfi_offset 14, -4
 129:Generated_Source\PSoC5/Out_MAX232.c ****             Out_MAX232_AUX_CONTROLDP1 |= (Out_MAX232_AUX_CTRL_FIFO0_CLR);
 199              		.loc 1 129 0
 200 0002 0C4A     		ldr	r2, .L20
 201 0004 1378     		ldrb	r3, [r2]	@ zero_extendqisi2
 202 0006 43F00103 		orr	r3, r3, #1
 203 000a 1370     		strb	r3, [r2]
 130:Generated_Source\PSoC5/Out_MAX232.c ****         #endif /* (Out_MAX232_Resolution == 8) */
 204              		.loc 1 130 0
 205 000c 0132     		adds	r2, r2, #1
ARM GAS  C:\Users\Ludovic\AppData\Local\Temp\ccwg9E8o.s 			page 15


 206 000e 1378     		ldrb	r3, [r2]	@ zero_extendqisi2
 207 0010 43F00103 		orr	r3, r3, #1
 208 0014 1370     		strb	r3, [r2]
 133:Generated_Source\PSoC5/Out_MAX232.c ****     #endif /* (!Out_MAX232_UsingFixedFunction) */
 209              		.loc 1 133 0
 210 0016 40F22B10 		movw	r0, #299
 211 001a FFF7FEFF 		bl	Out_MAX232_WriteCounter
 212              	.LVL4:
 136:Generated_Source\PSoC5/Out_MAX232.c **** 
 213              		.loc 1 136 0
 214 001e 40F22B10 		movw	r0, #299
 215 0022 FFF7FEFF 		bl	Out_MAX232_WritePeriod
 216              	.LVL5:
 141:Generated_Source\PSoC5/Out_MAX232.c ****             Out_MAX232_WriteCompare2(Out_MAX232_INIT_COMPARE_VALUE2);
 217              		.loc 1 141 0
 218 0026 9620     		movs	r0, #150
 219 0028 FFF7FEFF 		bl	Out_MAX232_WriteCompare1
 220              	.LVL6:
 142:Generated_Source\PSoC5/Out_MAX232.c ****         #endif /* (Out_MAX232_UseOneCompareMode) */
 221              		.loc 1 142 0
 222 002c 9620     		movs	r0, #150
 223 002e FFF7FEFF 		bl	Out_MAX232_WriteCompare2
 224              	.LVL7:
 225 0032 08BD     		pop	{r3, pc}
 226              	.L21:
 227              		.align	2
 228              	.L20:
 229 0034 9A650040 		.word	1073767834
 230              		.cfi_endproc
 231              	.LFE1:
 232              		.size	Out_MAX232_Init, .-Out_MAX232_Init
 233              		.section	.text.Out_MAX232_Start,"ax",%progbits
 234              		.align	2
 235              		.global	Out_MAX232_Start
 236              		.thumb
 237              		.thumb_func
 238              		.type	Out_MAX232_Start, %function
 239              	Out_MAX232_Start:
 240              	.LFB0:
  56:Generated_Source\PSoC5/Out_MAX232.c ****     /* If not Initialized then initialize all required hardware and software */
 241              		.loc 1 56 0
 242              		.cfi_startproc
 243              		@ args = 0, pretend = 0, frame = 0
 244              		@ frame_needed = 0, uses_anonymous_args = 0
 245 0000 08B5     		push	{r3, lr}
 246              		.cfi_def_cfa_offset 8
 247              		.cfi_offset 3, -8
 248              		.cfi_offset 14, -4
  58:Generated_Source\PSoC5/Out_MAX232.c ****     {
 249              		.loc 1 58 0
 250 0002 044B     		ldr	r3, .L25
 251 0004 1B78     		ldrb	r3, [r3]	@ zero_extendqisi2
 252 0006 23B9     		cbnz	r3, .L22
  60:Generated_Source\PSoC5/Out_MAX232.c ****         Out_MAX232_initVar = 1u;
 253              		.loc 1 60 0
 254 0008 FFF7FEFF 		bl	Out_MAX232_Init
 255              	.LVL8:
ARM GAS  C:\Users\Ludovic\AppData\Local\Temp\ccwg9E8o.s 			page 16


  61:Generated_Source\PSoC5/Out_MAX232.c ****     }
 256              		.loc 1 61 0
 257 000c 0122     		movs	r2, #1
 258 000e 014B     		ldr	r3, .L25
 259 0010 1A70     		strb	r2, [r3]
 260              	.L22:
 261 0012 08BD     		pop	{r3, pc}
 262              	.L26:
 263              		.align	2
 264              	.L25:
 265 0014 00000000 		.word	.LANCHOR0
 266              		.cfi_endproc
 267              	.LFE0:
 268              		.size	Out_MAX232_Start, .-Out_MAX232_Start
 269              		.section	.text.Out_MAX232_ReadCapture,"ax",%progbits
 270              		.align	2
 271              		.global	Out_MAX232_ReadCapture
 272              		.thumb
 273              		.thumb_func
 274              		.type	Out_MAX232_ReadCapture, %function
 275              	Out_MAX232_ReadCapture:
 276              	.LFB9:
 591:Generated_Source\PSoC5/Out_MAX232.c ****         #endif /* (Out_MAX232_UsingFixedFunction) */
 592:Generated_Source\PSoC5/Out_MAX232.c ****     }
 593:Generated_Source\PSoC5/Out_MAX232.c **** #endif /* UseOneCompareMode */
 594:Generated_Source\PSoC5/Out_MAX232.c **** 
 595:Generated_Source\PSoC5/Out_MAX232.c **** #if (Out_MAX232_DeadBandUsed)
 596:Generated_Source\PSoC5/Out_MAX232.c **** 
 597:Generated_Source\PSoC5/Out_MAX232.c **** 
 598:Generated_Source\PSoC5/Out_MAX232.c ****     /*******************************************************************************
 599:Generated_Source\PSoC5/Out_MAX232.c ****     * Function Name: Out_MAX232_WriteDeadTime
 600:Generated_Source\PSoC5/Out_MAX232.c ****     ********************************************************************************
 601:Generated_Source\PSoC5/Out_MAX232.c ****     *
 602:Generated_Source\PSoC5/Out_MAX232.c ****     * Summary:
 603:Generated_Source\PSoC5/Out_MAX232.c ****     *  This function writes the dead-band counts to the corresponding register
 604:Generated_Source\PSoC5/Out_MAX232.c ****     *
 605:Generated_Source\PSoC5/Out_MAX232.c ****     * Parameters:
 606:Generated_Source\PSoC5/Out_MAX232.c ****     *  deadtime:  Number of counts for dead time
 607:Generated_Source\PSoC5/Out_MAX232.c ****     *
 608:Generated_Source\PSoC5/Out_MAX232.c ****     * Return:
 609:Generated_Source\PSoC5/Out_MAX232.c ****     *  None
 610:Generated_Source\PSoC5/Out_MAX232.c ****     *
 611:Generated_Source\PSoC5/Out_MAX232.c ****     *******************************************************************************/
 612:Generated_Source\PSoC5/Out_MAX232.c ****     void Out_MAX232_WriteDeadTime(uint8 deadtime) 
 613:Generated_Source\PSoC5/Out_MAX232.c ****     {
 614:Generated_Source\PSoC5/Out_MAX232.c ****         /* If using the Dead Band 1-255 mode then just write the register */
 615:Generated_Source\PSoC5/Out_MAX232.c ****         #if(!Out_MAX232_DeadBand2_4)
 616:Generated_Source\PSoC5/Out_MAX232.c ****             CY_SET_REG8(Out_MAX232_DEADBAND_COUNT_PTR, deadtime);
 617:Generated_Source\PSoC5/Out_MAX232.c ****         #else
 618:Generated_Source\PSoC5/Out_MAX232.c ****             /* Otherwise the data has to be masked and offset */
 619:Generated_Source\PSoC5/Out_MAX232.c ****             /* Clear existing data */
 620:Generated_Source\PSoC5/Out_MAX232.c ****             Out_MAX232_DEADBAND_COUNT &= ((uint8)(~Out_MAX232_DEADBAND_COUNT_MASK));
 621:Generated_Source\PSoC5/Out_MAX232.c **** 
 622:Generated_Source\PSoC5/Out_MAX232.c ****             /* Set new dead time */
 623:Generated_Source\PSoC5/Out_MAX232.c ****             #if(Out_MAX232_DEADBAND_COUNT_SHIFT)
 624:Generated_Source\PSoC5/Out_MAX232.c ****                 Out_MAX232_DEADBAND_COUNT |= ((uint8)((uint8)deadtime << Out_MAX232_DEADBAND_COUNT_
 625:Generated_Source\PSoC5/Out_MAX232.c ****                                                     Out_MAX232_DEADBAND_COUNT_MASK;
ARM GAS  C:\Users\Ludovic\AppData\Local\Temp\ccwg9E8o.s 			page 17


 626:Generated_Source\PSoC5/Out_MAX232.c ****             #else
 627:Generated_Source\PSoC5/Out_MAX232.c ****                 Out_MAX232_DEADBAND_COUNT |= deadtime & Out_MAX232_DEADBAND_COUNT_MASK;
 628:Generated_Source\PSoC5/Out_MAX232.c ****             #endif /* (Out_MAX232_DEADBAND_COUNT_SHIFT) */
 629:Generated_Source\PSoC5/Out_MAX232.c **** 
 630:Generated_Source\PSoC5/Out_MAX232.c ****         #endif /* (!Out_MAX232_DeadBand2_4) */
 631:Generated_Source\PSoC5/Out_MAX232.c ****     }
 632:Generated_Source\PSoC5/Out_MAX232.c **** 
 633:Generated_Source\PSoC5/Out_MAX232.c **** 
 634:Generated_Source\PSoC5/Out_MAX232.c ****     /*******************************************************************************
 635:Generated_Source\PSoC5/Out_MAX232.c ****     * Function Name: Out_MAX232_ReadDeadTime
 636:Generated_Source\PSoC5/Out_MAX232.c ****     ********************************************************************************
 637:Generated_Source\PSoC5/Out_MAX232.c ****     *
 638:Generated_Source\PSoC5/Out_MAX232.c ****     * Summary:
 639:Generated_Source\PSoC5/Out_MAX232.c ****     *  This function reads the dead-band counts from the corresponding register
 640:Generated_Source\PSoC5/Out_MAX232.c ****     *
 641:Generated_Source\PSoC5/Out_MAX232.c ****     * Parameters:
 642:Generated_Source\PSoC5/Out_MAX232.c ****     *  None
 643:Generated_Source\PSoC5/Out_MAX232.c ****     *
 644:Generated_Source\PSoC5/Out_MAX232.c ****     * Return:
 645:Generated_Source\PSoC5/Out_MAX232.c ****     *  Dead Band Counts
 646:Generated_Source\PSoC5/Out_MAX232.c ****     *
 647:Generated_Source\PSoC5/Out_MAX232.c ****     *******************************************************************************/
 648:Generated_Source\PSoC5/Out_MAX232.c ****     uint8 Out_MAX232_ReadDeadTime(void) 
 649:Generated_Source\PSoC5/Out_MAX232.c ****     {
 650:Generated_Source\PSoC5/Out_MAX232.c ****         /* If using the Dead Band 1-255 mode then just read the register */
 651:Generated_Source\PSoC5/Out_MAX232.c ****         #if(!Out_MAX232_DeadBand2_4)
 652:Generated_Source\PSoC5/Out_MAX232.c ****             return (CY_GET_REG8(Out_MAX232_DEADBAND_COUNT_PTR));
 653:Generated_Source\PSoC5/Out_MAX232.c ****         #else
 654:Generated_Source\PSoC5/Out_MAX232.c **** 
 655:Generated_Source\PSoC5/Out_MAX232.c ****             /* Otherwise the data has to be masked and offset */
 656:Generated_Source\PSoC5/Out_MAX232.c ****             #if(Out_MAX232_DEADBAND_COUNT_SHIFT)
 657:Generated_Source\PSoC5/Out_MAX232.c ****                 return ((uint8)(((uint8)(Out_MAX232_DEADBAND_COUNT & Out_MAX232_DEADBAND_COUNT_MASK
 658:Generated_Source\PSoC5/Out_MAX232.c ****                                                                            Out_MAX232_DEADBAND_COUN
 659:Generated_Source\PSoC5/Out_MAX232.c ****             #else
 660:Generated_Source\PSoC5/Out_MAX232.c ****                 return (Out_MAX232_DEADBAND_COUNT & Out_MAX232_DEADBAND_COUNT_MASK);
 661:Generated_Source\PSoC5/Out_MAX232.c ****             #endif /* (Out_MAX232_DEADBAND_COUNT_SHIFT) */
 662:Generated_Source\PSoC5/Out_MAX232.c ****         #endif /* (!Out_MAX232_DeadBand2_4) */
 663:Generated_Source\PSoC5/Out_MAX232.c ****     }
 664:Generated_Source\PSoC5/Out_MAX232.c **** #endif /* DeadBandUsed */
 665:Generated_Source\PSoC5/Out_MAX232.c **** 
 666:Generated_Source\PSoC5/Out_MAX232.c **** #if (Out_MAX232_UseStatus || Out_MAX232_UsingFixedFunction)
 667:Generated_Source\PSoC5/Out_MAX232.c **** 
 668:Generated_Source\PSoC5/Out_MAX232.c **** 
 669:Generated_Source\PSoC5/Out_MAX232.c ****     /*******************************************************************************
 670:Generated_Source\PSoC5/Out_MAX232.c ****     * Function Name: Out_MAX232_SetInterruptMode
 671:Generated_Source\PSoC5/Out_MAX232.c ****     ********************************************************************************
 672:Generated_Source\PSoC5/Out_MAX232.c ****     *
 673:Generated_Source\PSoC5/Out_MAX232.c ****     * Summary:
 674:Generated_Source\PSoC5/Out_MAX232.c ****     *  This function configures the interrupts mask control of theinterrupt
 675:Generated_Source\PSoC5/Out_MAX232.c ****     *  source status register.
 676:Generated_Source\PSoC5/Out_MAX232.c ****     *
 677:Generated_Source\PSoC5/Out_MAX232.c ****     * Parameters:
 678:Generated_Source\PSoC5/Out_MAX232.c ****     *  uint8 interruptMode: Bit field containing the interrupt sources enabled
 679:Generated_Source\PSoC5/Out_MAX232.c ****     *
 680:Generated_Source\PSoC5/Out_MAX232.c ****     * Return:
 681:Generated_Source\PSoC5/Out_MAX232.c ****     *  None
 682:Generated_Source\PSoC5/Out_MAX232.c ****     *
ARM GAS  C:\Users\Ludovic\AppData\Local\Temp\ccwg9E8o.s 			page 18


 683:Generated_Source\PSoC5/Out_MAX232.c ****     *******************************************************************************/
 684:Generated_Source\PSoC5/Out_MAX232.c ****     void Out_MAX232_SetInterruptMode(uint8 interruptMode) 
 685:Generated_Source\PSoC5/Out_MAX232.c ****     {
 686:Generated_Source\PSoC5/Out_MAX232.c ****         CY_SET_REG8(Out_MAX232_STATUS_MASK_PTR, interruptMode);
 687:Generated_Source\PSoC5/Out_MAX232.c ****     }
 688:Generated_Source\PSoC5/Out_MAX232.c **** 
 689:Generated_Source\PSoC5/Out_MAX232.c **** 
 690:Generated_Source\PSoC5/Out_MAX232.c ****     /*******************************************************************************
 691:Generated_Source\PSoC5/Out_MAX232.c ****     * Function Name: Out_MAX232_ReadStatusRegister
 692:Generated_Source\PSoC5/Out_MAX232.c ****     ********************************************************************************
 693:Generated_Source\PSoC5/Out_MAX232.c ****     *
 694:Generated_Source\PSoC5/Out_MAX232.c ****     * Summary:
 695:Generated_Source\PSoC5/Out_MAX232.c ****     *  This function returns the current state of the status register.
 696:Generated_Source\PSoC5/Out_MAX232.c ****     *
 697:Generated_Source\PSoC5/Out_MAX232.c ****     * Parameters:
 698:Generated_Source\PSoC5/Out_MAX232.c ****     *  None
 699:Generated_Source\PSoC5/Out_MAX232.c ****     *
 700:Generated_Source\PSoC5/Out_MAX232.c ****     * Return:
 701:Generated_Source\PSoC5/Out_MAX232.c ****     *  uint8 : Current status register value. The status register bits are:
 702:Generated_Source\PSoC5/Out_MAX232.c ****     *  [7:6] : Unused(0)
 703:Generated_Source\PSoC5/Out_MAX232.c ****     *  [5]   : Kill event output
 704:Generated_Source\PSoC5/Out_MAX232.c ****     *  [4]   : FIFO not empty
 705:Generated_Source\PSoC5/Out_MAX232.c ****     *  [3]   : FIFO full
 706:Generated_Source\PSoC5/Out_MAX232.c ****     *  [2]   : Terminal count
 707:Generated_Source\PSoC5/Out_MAX232.c ****     *  [1]   : Compare output 2
 708:Generated_Source\PSoC5/Out_MAX232.c ****     *  [0]   : Compare output 1
 709:Generated_Source\PSoC5/Out_MAX232.c ****     *
 710:Generated_Source\PSoC5/Out_MAX232.c ****     *******************************************************************************/
 711:Generated_Source\PSoC5/Out_MAX232.c ****     uint8 Out_MAX232_ReadStatusRegister(void) 
 712:Generated_Source\PSoC5/Out_MAX232.c ****     {
 713:Generated_Source\PSoC5/Out_MAX232.c ****         return (CY_GET_REG8(Out_MAX232_STATUS_PTR));
 714:Generated_Source\PSoC5/Out_MAX232.c ****     }
 715:Generated_Source\PSoC5/Out_MAX232.c **** 
 716:Generated_Source\PSoC5/Out_MAX232.c **** #endif /* (Out_MAX232_UseStatus || Out_MAX232_UsingFixedFunction) */
 717:Generated_Source\PSoC5/Out_MAX232.c **** 
 718:Generated_Source\PSoC5/Out_MAX232.c **** 
 719:Generated_Source\PSoC5/Out_MAX232.c **** #if (Out_MAX232_UseControl)
 720:Generated_Source\PSoC5/Out_MAX232.c **** 
 721:Generated_Source\PSoC5/Out_MAX232.c **** 
 722:Generated_Source\PSoC5/Out_MAX232.c ****     /*******************************************************************************
 723:Generated_Source\PSoC5/Out_MAX232.c ****     * Function Name: Out_MAX232_ReadControlRegister
 724:Generated_Source\PSoC5/Out_MAX232.c ****     ********************************************************************************
 725:Generated_Source\PSoC5/Out_MAX232.c ****     *
 726:Generated_Source\PSoC5/Out_MAX232.c ****     * Summary:
 727:Generated_Source\PSoC5/Out_MAX232.c ****     *  Returns the current state of the control register. This API is available
 728:Generated_Source\PSoC5/Out_MAX232.c ****     *  only if the control register is not removed.
 729:Generated_Source\PSoC5/Out_MAX232.c ****     *
 730:Generated_Source\PSoC5/Out_MAX232.c ****     * Parameters:
 731:Generated_Source\PSoC5/Out_MAX232.c ****     *  None
 732:Generated_Source\PSoC5/Out_MAX232.c ****     *
 733:Generated_Source\PSoC5/Out_MAX232.c ****     * Return:
 734:Generated_Source\PSoC5/Out_MAX232.c ****     *  uint8 : Current control register value
 735:Generated_Source\PSoC5/Out_MAX232.c ****     *
 736:Generated_Source\PSoC5/Out_MAX232.c ****     *******************************************************************************/
 737:Generated_Source\PSoC5/Out_MAX232.c ****     uint8 Out_MAX232_ReadControlRegister(void) 
 738:Generated_Source\PSoC5/Out_MAX232.c ****     {
 739:Generated_Source\PSoC5/Out_MAX232.c ****         uint8 result;
ARM GAS  C:\Users\Ludovic\AppData\Local\Temp\ccwg9E8o.s 			page 19


 740:Generated_Source\PSoC5/Out_MAX232.c **** 
 741:Generated_Source\PSoC5/Out_MAX232.c ****         result = CY_GET_REG8(Out_MAX232_CONTROL_PTR);
 742:Generated_Source\PSoC5/Out_MAX232.c ****         return (result);
 743:Generated_Source\PSoC5/Out_MAX232.c ****     }
 744:Generated_Source\PSoC5/Out_MAX232.c **** 
 745:Generated_Source\PSoC5/Out_MAX232.c **** 
 746:Generated_Source\PSoC5/Out_MAX232.c ****     /*******************************************************************************
 747:Generated_Source\PSoC5/Out_MAX232.c ****     * Function Name: Out_MAX232_WriteControlRegister
 748:Generated_Source\PSoC5/Out_MAX232.c ****     ********************************************************************************
 749:Generated_Source\PSoC5/Out_MAX232.c ****     *
 750:Generated_Source\PSoC5/Out_MAX232.c ****     * Summary:
 751:Generated_Source\PSoC5/Out_MAX232.c ****     *  Sets the bit field of the control register. This API is available only if
 752:Generated_Source\PSoC5/Out_MAX232.c ****     *  the control register is not removed.
 753:Generated_Source\PSoC5/Out_MAX232.c ****     *
 754:Generated_Source\PSoC5/Out_MAX232.c ****     * Parameters:
 755:Generated_Source\PSoC5/Out_MAX232.c ****     *  uint8 control: Control register bit field, The status register bits are:
 756:Generated_Source\PSoC5/Out_MAX232.c ****     *  [7]   : PWM Enable
 757:Generated_Source\PSoC5/Out_MAX232.c ****     *  [6]   : Reset
 758:Generated_Source\PSoC5/Out_MAX232.c ****     *  [5:3] : Compare Mode2
 759:Generated_Source\PSoC5/Out_MAX232.c ****     *  [2:0] : Compare Mode2
 760:Generated_Source\PSoC5/Out_MAX232.c ****     *
 761:Generated_Source\PSoC5/Out_MAX232.c ****     * Return:
 762:Generated_Source\PSoC5/Out_MAX232.c ****     *  None
 763:Generated_Source\PSoC5/Out_MAX232.c ****     *
 764:Generated_Source\PSoC5/Out_MAX232.c ****     *******************************************************************************/
 765:Generated_Source\PSoC5/Out_MAX232.c ****     void Out_MAX232_WriteControlRegister(uint8 control) 
 766:Generated_Source\PSoC5/Out_MAX232.c ****     {
 767:Generated_Source\PSoC5/Out_MAX232.c ****         CY_SET_REG8(Out_MAX232_CONTROL_PTR, control);
 768:Generated_Source\PSoC5/Out_MAX232.c ****     }
 769:Generated_Source\PSoC5/Out_MAX232.c **** 
 770:Generated_Source\PSoC5/Out_MAX232.c **** #endif /* (Out_MAX232_UseControl) */
 771:Generated_Source\PSoC5/Out_MAX232.c **** 
 772:Generated_Source\PSoC5/Out_MAX232.c **** 
 773:Generated_Source\PSoC5/Out_MAX232.c **** #if (!Out_MAX232_UsingFixedFunction)
 774:Generated_Source\PSoC5/Out_MAX232.c **** 
 775:Generated_Source\PSoC5/Out_MAX232.c **** 
 776:Generated_Source\PSoC5/Out_MAX232.c ****     /*******************************************************************************
 777:Generated_Source\PSoC5/Out_MAX232.c ****     * Function Name: Out_MAX232_ReadCapture
 778:Generated_Source\PSoC5/Out_MAX232.c ****     ********************************************************************************
 779:Generated_Source\PSoC5/Out_MAX232.c ****     *
 780:Generated_Source\PSoC5/Out_MAX232.c ****     * Summary:
 781:Generated_Source\PSoC5/Out_MAX232.c ****     *  Reads the capture value from the capture FIFO.
 782:Generated_Source\PSoC5/Out_MAX232.c ****     *
 783:Generated_Source\PSoC5/Out_MAX232.c ****     * Parameters:
 784:Generated_Source\PSoC5/Out_MAX232.c ****     *  None
 785:Generated_Source\PSoC5/Out_MAX232.c ****     *
 786:Generated_Source\PSoC5/Out_MAX232.c ****     * Return:
 787:Generated_Source\PSoC5/Out_MAX232.c ****     *  uint8/uint16: The current capture value
 788:Generated_Source\PSoC5/Out_MAX232.c ****     *
 789:Generated_Source\PSoC5/Out_MAX232.c ****     *******************************************************************************/
 790:Generated_Source\PSoC5/Out_MAX232.c ****     uint16 Out_MAX232_ReadCapture(void) 
 791:Generated_Source\PSoC5/Out_MAX232.c ****     {
 277              		.loc 1 791 0
 278              		.cfi_startproc
 279              		@ args = 0, pretend = 0, frame = 0
 280              		@ frame_needed = 0, uses_anonymous_args = 0
 281              		@ link register save eliminated.
ARM GAS  C:\Users\Ludovic\AppData\Local\Temp\ccwg9E8o.s 			page 20


 792:Generated_Source\PSoC5/Out_MAX232.c ****         return (CY_GET_REG16(Out_MAX232_CAPTURE_LSB_PTR));
 282              		.loc 1 792 0
 283 0000 014B     		ldr	r3, .L28
 284 0002 1888     		ldrh	r0, [r3]
 793:Generated_Source\PSoC5/Out_MAX232.c ****     }
 285              		.loc 1 793 0
 286 0004 80B2     		uxth	r0, r0
 287 0006 7047     		bx	lr
 288              	.L29:
 289              		.align	2
 290              	.L28:
 291 0008 B46A0040 		.word	1073769140
 292              		.cfi_endproc
 293              	.LFE9:
 294              		.size	Out_MAX232_ReadCapture, .-Out_MAX232_ReadCapture
 295              		.section	.text.Out_MAX232_ReadCompare1,"ax",%progbits
 296              		.align	2
 297              		.global	Out_MAX232_ReadCompare1
 298              		.thumb
 299              		.thumb_func
 300              		.type	Out_MAX232_ReadCompare1, %function
 301              	Out_MAX232_ReadCompare1:
 302              	.LFB10:
 794:Generated_Source\PSoC5/Out_MAX232.c **** 
 795:Generated_Source\PSoC5/Out_MAX232.c **** #endif /* (!Out_MAX232_UsingFixedFunction) */
 796:Generated_Source\PSoC5/Out_MAX232.c **** 
 797:Generated_Source\PSoC5/Out_MAX232.c **** 
 798:Generated_Source\PSoC5/Out_MAX232.c **** #if (Out_MAX232_UseOneCompareMode)
 799:Generated_Source\PSoC5/Out_MAX232.c **** 
 800:Generated_Source\PSoC5/Out_MAX232.c **** 
 801:Generated_Source\PSoC5/Out_MAX232.c ****     /*******************************************************************************
 802:Generated_Source\PSoC5/Out_MAX232.c ****     * Function Name: Out_MAX232_ReadCompare
 803:Generated_Source\PSoC5/Out_MAX232.c ****     ********************************************************************************
 804:Generated_Source\PSoC5/Out_MAX232.c ****     *
 805:Generated_Source\PSoC5/Out_MAX232.c ****     * Summary:
 806:Generated_Source\PSoC5/Out_MAX232.c ****     *  Reads the compare value for the compare output when the PWM Mode parameter is
 807:Generated_Source\PSoC5/Out_MAX232.c ****     *  set to Dither mode, Center Aligned mode, or One Output mode.
 808:Generated_Source\PSoC5/Out_MAX232.c ****     *
 809:Generated_Source\PSoC5/Out_MAX232.c ****     * Parameters:
 810:Generated_Source\PSoC5/Out_MAX232.c ****     *  None
 811:Generated_Source\PSoC5/Out_MAX232.c ****     *
 812:Generated_Source\PSoC5/Out_MAX232.c ****     * Return:
 813:Generated_Source\PSoC5/Out_MAX232.c ****     *  uint8/uint16: Current compare value
 814:Generated_Source\PSoC5/Out_MAX232.c ****     *
 815:Generated_Source\PSoC5/Out_MAX232.c ****     *******************************************************************************/
 816:Generated_Source\PSoC5/Out_MAX232.c ****     uint16 Out_MAX232_ReadCompare(void) 
 817:Generated_Source\PSoC5/Out_MAX232.c ****     {
 818:Generated_Source\PSoC5/Out_MAX232.c ****         #if(Out_MAX232_UsingFixedFunction)
 819:Generated_Source\PSoC5/Out_MAX232.c ****             return ((uint16)CY_GET_REG16(Out_MAX232_COMPARE1_LSB_PTR));
 820:Generated_Source\PSoC5/Out_MAX232.c ****         #else
 821:Generated_Source\PSoC5/Out_MAX232.c ****             return (CY_GET_REG16(Out_MAX232_COMPARE1_LSB_PTR));
 822:Generated_Source\PSoC5/Out_MAX232.c ****         #endif /* (Out_MAX232_UsingFixedFunction) */
 823:Generated_Source\PSoC5/Out_MAX232.c ****     }
 824:Generated_Source\PSoC5/Out_MAX232.c **** 
 825:Generated_Source\PSoC5/Out_MAX232.c **** #else
 826:Generated_Source\PSoC5/Out_MAX232.c **** 
 827:Generated_Source\PSoC5/Out_MAX232.c **** 
ARM GAS  C:\Users\Ludovic\AppData\Local\Temp\ccwg9E8o.s 			page 21


 828:Generated_Source\PSoC5/Out_MAX232.c ****     /*******************************************************************************
 829:Generated_Source\PSoC5/Out_MAX232.c ****     * Function Name: Out_MAX232_ReadCompare1
 830:Generated_Source\PSoC5/Out_MAX232.c ****     ********************************************************************************
 831:Generated_Source\PSoC5/Out_MAX232.c ****     *
 832:Generated_Source\PSoC5/Out_MAX232.c ****     * Summary:
 833:Generated_Source\PSoC5/Out_MAX232.c ****     *  Reads the compare value for the compare1 output.
 834:Generated_Source\PSoC5/Out_MAX232.c ****     *
 835:Generated_Source\PSoC5/Out_MAX232.c ****     * Parameters:
 836:Generated_Source\PSoC5/Out_MAX232.c ****     *  None
 837:Generated_Source\PSoC5/Out_MAX232.c ****     *
 838:Generated_Source\PSoC5/Out_MAX232.c ****     * Return:
 839:Generated_Source\PSoC5/Out_MAX232.c ****     *  uint8/uint16: Current compare value.
 840:Generated_Source\PSoC5/Out_MAX232.c ****     *
 841:Generated_Source\PSoC5/Out_MAX232.c ****     *******************************************************************************/
 842:Generated_Source\PSoC5/Out_MAX232.c ****     uint16 Out_MAX232_ReadCompare1(void) 
 843:Generated_Source\PSoC5/Out_MAX232.c ****     {
 303              		.loc 1 843 0
 304              		.cfi_startproc
 305              		@ args = 0, pretend = 0, frame = 0
 306              		@ frame_needed = 0, uses_anonymous_args = 0
 307              		@ link register save eliminated.
 844:Generated_Source\PSoC5/Out_MAX232.c ****         return (CY_GET_REG16(Out_MAX232_COMPARE1_LSB_PTR));
 308              		.loc 1 844 0
 309 0000 014B     		ldr	r3, .L31
 310 0002 1888     		ldrh	r0, [r3]
 845:Generated_Source\PSoC5/Out_MAX232.c ****     }
 311              		.loc 1 845 0
 312 0004 80B2     		uxth	r0, r0
 313 0006 7047     		bx	lr
 314              	.L32:
 315              		.align	2
 316              	.L31:
 317 0008 546A0040 		.word	1073769044
 318              		.cfi_endproc
 319              	.LFE10:
 320              		.size	Out_MAX232_ReadCompare1, .-Out_MAX232_ReadCompare1
 321              		.section	.text.Out_MAX232_ReadCompare2,"ax",%progbits
 322              		.align	2
 323              		.global	Out_MAX232_ReadCompare2
 324              		.thumb
 325              		.thumb_func
 326              		.type	Out_MAX232_ReadCompare2, %function
 327              	Out_MAX232_ReadCompare2:
 328              	.LFB11:
 846:Generated_Source\PSoC5/Out_MAX232.c **** 
 847:Generated_Source\PSoC5/Out_MAX232.c **** 
 848:Generated_Source\PSoC5/Out_MAX232.c ****     /*******************************************************************************
 849:Generated_Source\PSoC5/Out_MAX232.c ****     * Function Name: Out_MAX232_ReadCompare2
 850:Generated_Source\PSoC5/Out_MAX232.c ****     ********************************************************************************
 851:Generated_Source\PSoC5/Out_MAX232.c ****     *
 852:Generated_Source\PSoC5/Out_MAX232.c ****     * Summary:
 853:Generated_Source\PSoC5/Out_MAX232.c ****     *  Reads the compare value for the compare2 output.
 854:Generated_Source\PSoC5/Out_MAX232.c ****     *
 855:Generated_Source\PSoC5/Out_MAX232.c ****     * Parameters:
 856:Generated_Source\PSoC5/Out_MAX232.c ****     *  None
 857:Generated_Source\PSoC5/Out_MAX232.c ****     *
 858:Generated_Source\PSoC5/Out_MAX232.c ****     * Return:
ARM GAS  C:\Users\Ludovic\AppData\Local\Temp\ccwg9E8o.s 			page 22


 859:Generated_Source\PSoC5/Out_MAX232.c ****     *  uint8/uint16: Current compare value.
 860:Generated_Source\PSoC5/Out_MAX232.c ****     *
 861:Generated_Source\PSoC5/Out_MAX232.c ****     *******************************************************************************/
 862:Generated_Source\PSoC5/Out_MAX232.c ****     uint16 Out_MAX232_ReadCompare2(void) 
 863:Generated_Source\PSoC5/Out_MAX232.c ****     {
 329              		.loc 1 863 0
 330              		.cfi_startproc
 331              		@ args = 0, pretend = 0, frame = 0
 332              		@ frame_needed = 0, uses_anonymous_args = 0
 333              		@ link register save eliminated.
 864:Generated_Source\PSoC5/Out_MAX232.c ****         return (CY_GET_REG16(Out_MAX232_COMPARE2_LSB_PTR));
 334              		.loc 1 864 0
 335 0000 014B     		ldr	r3, .L34
 336 0002 1888     		ldrh	r0, [r3]
 865:Generated_Source\PSoC5/Out_MAX232.c ****     }
 337              		.loc 1 865 0
 338 0004 80B2     		uxth	r0, r0
 339 0006 7047     		bx	lr
 340              	.L35:
 341              		.align	2
 342              	.L34:
 343 0008 746A0040 		.word	1073769076
 344              		.cfi_endproc
 345              	.LFE11:
 346              		.size	Out_MAX232_ReadCompare2, .-Out_MAX232_ReadCompare2
 347              		.section	.text.Out_MAX232_ReadPeriod,"ax",%progbits
 348              		.align	2
 349              		.global	Out_MAX232_ReadPeriod
 350              		.thumb
 351              		.thumb_func
 352              		.type	Out_MAX232_ReadPeriod, %function
 353              	Out_MAX232_ReadPeriod:
 354              	.LFB12:
 866:Generated_Source\PSoC5/Out_MAX232.c **** 
 867:Generated_Source\PSoC5/Out_MAX232.c **** #endif /* (Out_MAX232_UseOneCompareMode) */
 868:Generated_Source\PSoC5/Out_MAX232.c **** 
 869:Generated_Source\PSoC5/Out_MAX232.c **** 
 870:Generated_Source\PSoC5/Out_MAX232.c **** /*******************************************************************************
 871:Generated_Source\PSoC5/Out_MAX232.c **** * Function Name: Out_MAX232_ReadPeriod
 872:Generated_Source\PSoC5/Out_MAX232.c **** ********************************************************************************
 873:Generated_Source\PSoC5/Out_MAX232.c **** *
 874:Generated_Source\PSoC5/Out_MAX232.c **** * Summary:
 875:Generated_Source\PSoC5/Out_MAX232.c **** *  Reads the period value used by the PWM hardware.
 876:Generated_Source\PSoC5/Out_MAX232.c **** *
 877:Generated_Source\PSoC5/Out_MAX232.c **** * Parameters:
 878:Generated_Source\PSoC5/Out_MAX232.c **** *  None
 879:Generated_Source\PSoC5/Out_MAX232.c **** *
 880:Generated_Source\PSoC5/Out_MAX232.c **** * Return:
 881:Generated_Source\PSoC5/Out_MAX232.c **** *  uint8/16: Period value
 882:Generated_Source\PSoC5/Out_MAX232.c **** *
 883:Generated_Source\PSoC5/Out_MAX232.c **** *******************************************************************************/
 884:Generated_Source\PSoC5/Out_MAX232.c **** uint16 Out_MAX232_ReadPeriod(void) 
 885:Generated_Source\PSoC5/Out_MAX232.c **** {
 355              		.loc 1 885 0
 356              		.cfi_startproc
 357              		@ args = 0, pretend = 0, frame = 0
 358              		@ frame_needed = 0, uses_anonymous_args = 0
ARM GAS  C:\Users\Ludovic\AppData\Local\Temp\ccwg9E8o.s 			page 23


 359              		@ link register save eliminated.
 886:Generated_Source\PSoC5/Out_MAX232.c ****     #if(Out_MAX232_UsingFixedFunction)
 887:Generated_Source\PSoC5/Out_MAX232.c ****         return ((uint16)CY_GET_REG16(Out_MAX232_PERIOD_LSB_PTR));
 888:Generated_Source\PSoC5/Out_MAX232.c ****     #else
 889:Generated_Source\PSoC5/Out_MAX232.c ****         return (CY_GET_REG16(Out_MAX232_PERIOD_LSB_PTR));
 360              		.loc 1 889 0
 361 0000 014B     		ldr	r3, .L37
 362 0002 1888     		ldrh	r0, [r3]
 890:Generated_Source\PSoC5/Out_MAX232.c ****     #endif /* (Out_MAX232_UsingFixedFunction) */
 891:Generated_Source\PSoC5/Out_MAX232.c **** }
 363              		.loc 1 891 0
 364 0004 80B2     		uxth	r0, r0
 365 0006 7047     		bx	lr
 366              	.L38:
 367              		.align	2
 368              	.L37:
 369 0008 946A0040 		.word	1073769108
 370              		.cfi_endproc
 371              	.LFE12:
 372              		.size	Out_MAX232_ReadPeriod, .-Out_MAX232_ReadPeriod
 373              		.global	Out_MAX232_initVar
 374              		.bss
 375              		.set	.LANCHOR0,. + 0
 376              		.type	Out_MAX232_initVar, %object
 377              		.size	Out_MAX232_initVar, 1
 378              	Out_MAX232_initVar:
 379 0000 00       		.space	1
 380              		.text
 381              	.Letext0:
 382              		.file 2 "Generated_Source\\PSoC5\\cytypes.h"